
/Users/duddie/Projects/fun/prime_bench/build/prime.elf:	file format mach-o arm64

Disassembly of section __TEXT,__text:

0000000100001c9c <_main>:
100001c9c: d101c3ff    	sub	sp, sp, #112
100001ca0: a9067bfd    	stp	x29, x30, [sp, #96]
100001ca4: 910183fd    	add	x29, sp, #96
100001ca8: d2994008    	mov	x8, #51712
100001cac: f2a77348    	movk	x8, #15258, lsl #16
100001cb0: f90013e8    	str	x8, [sp, #32]
100001cb4: f0000028    	adrp	x8, 0x100008000 <_main+0x34>
100001cb8: 91002108    	add	x8, x8, #8
100001cbc: f90017e8    	str	x8, [sp, #40]
100001cc0: b81fc3bf    	stur	wzr, [x29, #-4]
100001cc4: d0000000    	adrp	x0, 0x100003000 <_main+0x30>
100001cc8: 913ae000    	add	x0, x0, #3768
100001ccc: 94000873    	bl	0x100003e98 <_timespec_get+0x100003e98>
100001cd0: 94000831    	bl	0x100003d94 <_vo_time_get>
100001cd4: aa0003e8    	mov	x8, x0
100001cd8: f94013e0    	ldr	x0, [sp, #32]
100001cdc: f81f03a8    	stur	x8, [x29, #-16]
100001ce0: d0000008    	adrp	x8, 0x100003000 <_main+0x4c>
100001ce4: fd475900    	ldr	d0, [x8, #3760]
100001ce8: 1e61c000    	fsqrt	d0, d0
100001cec: 9e790008    	fcvtzu	x8, d0
100001cf0: f9001be8    	str	x8, [sp, #48]
100001cf4: 94000866    	bl	0x100003e8c <_timespec_get+0x100003e8c>
100001cf8: f94017e8    	ldr	x8, [sp, #40]
100001cfc: f9000100    	str	x0, [x8]
100001d00: f81e03bf    	stur	xzr, [x29, #-32]
100001d04: 14000001    	b	0x100001d08 <_main+0x6c>
100001d08: f94013e9    	ldr	x9, [sp, #32]
100001d0c: f85e03a8    	ldur	x8, [x29, #-32]
100001d10: eb090108    	subs	x8, x8, x9
100001d14: 1a9f37e8    	cset	w8, hs
100001d18: 370001a8    	tbnz	w8, #0, 0x100001d4c <_main+0xb0>
100001d1c: 14000001    	b	0x100001d20 <_main+0x84>
100001d20: f94017e8    	ldr	x8, [sp, #40]
100001d24: f9400108    	ldr	x8, [x8]
100001d28: f85e03a9    	ldur	x9, [x29, #-32]
100001d2c: 8b090109    	add	x9, x8, x9
100001d30: 52800028    	mov	w8, #1
100001d34: 39000128    	strb	w8, [x9]
100001d38: 14000001    	b	0x100001d3c <_main+0xa0>
100001d3c: f85e03a8    	ldur	x8, [x29, #-32]
100001d40: 91000508    	add	x8, x8, #1
100001d44: f81e03a8    	stur	x8, [x29, #-32]
100001d48: 17fffff0    	b	0x100001d08 <_main+0x6c>
100001d4c: d2800048    	mov	x8, #2
100001d50: f81e03a8    	stur	x8, [x29, #-32]
100001d54: 14000001    	b	0x100001d58 <_main+0xbc>
100001d58: f85e03a8    	ldur	x8, [x29, #-32]
100001d5c: f9401be9    	ldr	x9, [sp, #48]
100001d60: eb090108    	subs	x8, x8, x9
100001d64: 1a9f97e8    	cset	w8, hi
100001d68: 370004c8    	tbnz	w8, #0, 0x100001e00 <_main+0x164>
100001d6c: 14000001    	b	0x100001d70 <_main+0xd4>
100001d70: f94017e8    	ldr	x8, [sp, #40]
100001d74: f9400108    	ldr	x8, [x8]
100001d78: f85e03a9    	ldur	x9, [x29, #-32]
100001d7c: 38696908    	ldrb	w8, [x8, x9]
100001d80: 71000508    	subs	w8, w8, #1
100001d84: 1a9f07e8    	cset	w8, ne
100001d88: 37000328    	tbnz	w8, #0, 0x100001dec <_main+0x150>
100001d8c: 14000001    	b	0x100001d90 <_main+0xf4>
100001d90: f85e03a8    	ldur	x8, [x29, #-32]
100001d94: f85e03a9    	ldur	x9, [x29, #-32]
100001d98: 9b097d08    	mul	x8, x8, x9
100001d9c: f81d83a8    	stur	x8, [x29, #-40]
100001da0: 14000001    	b	0x100001da4 <_main+0x108>
100001da4: f94013e9    	ldr	x9, [sp, #32]
100001da8: f85d83a8    	ldur	x8, [x29, #-40]
100001dac: eb090108    	subs	x8, x8, x9
100001db0: 1a9f37e8    	cset	w8, hs
100001db4: 370001a8    	tbnz	w8, #0, 0x100001de8 <_main+0x14c>
100001db8: 14000001    	b	0x100001dbc <_main+0x120>
100001dbc: f94017e8    	ldr	x8, [sp, #40]
100001dc0: f9400108    	ldr	x8, [x8]
100001dc4: f85d83a9    	ldur	x9, [x29, #-40]
100001dc8: 8b090108    	add	x8, x8, x9
100001dcc: 3900011f    	strb	wzr, [x8]
100001dd0: 14000001    	b	0x100001dd4 <_main+0x138>
100001dd4: f85e03a9    	ldur	x9, [x29, #-32]
100001dd8: f85d83a8    	ldur	x8, [x29, #-40]
100001ddc: 8b090108    	add	x8, x8, x9
100001de0: f81d83a8    	stur	x8, [x29, #-40]
100001de4: 17fffff0    	b	0x100001da4 <_main+0x108>
100001de8: 14000001    	b	0x100001dec <_main+0x150>
100001dec: 14000001    	b	0x100001df0 <_main+0x154>
100001df0: f85e03a8    	ldur	x8, [x29, #-32]
100001df4: 91000508    	add	x8, x8, #1
100001df8: f81e03a8    	stur	x8, [x29, #-32]
100001dfc: 17ffffd7    	b	0x100001d58 <_main+0xbc>
100001e00: 940007e5    	bl	0x100003d94 <_vo_time_get>
100001e04: f81e83a0    	stur	x0, [x29, #-24]
100001e08: 9400080e    	bl	0x100003e40 <_vo_time_get_ms>
100001e0c: 1e230000    	ucvtf	s0, w0
100001e10: 52a88f48    	mov	w8, #1148846080
100001e14: 1e270101    	fmov	s1, w8
100001e18: 1e211800    	fdiv	s0, s0, s1
100001e1c: 1e22c000    	fcvt	d0, s0
100001e20: f85e83a8    	ldur	x8, [x29, #-24]
100001e24: f85f03a9    	ldur	x9, [x29, #-16]
100001e28: eb090108    	subs	x8, x8, x9
100001e2c: 910003e9    	mov	x9, sp
100001e30: fd000120    	str	d0, [x9]
100001e34: d000000a    	adrp	x10, 0x100003000 <_main+0x1a0>
100001e38: 913c114a    	add	x10, x10, #3844
100001e3c: f900052a    	str	x10, [x9, #8]
100001e40: f9000928    	str	x8, [x9, #16]
100001e44: d0000000    	adrp	x0, 0x100003000 <_main+0x1b0>
100001e48: 913b6800    	add	x0, x0, #3802
100001e4c: 94000813    	bl	0x100003e98 <_timespec_get+0x100003e98>
100001e50: 52800000    	mov	w0, #0
100001e54: a9467bfd    	ldp	x29, x30, [sp, #96]
100001e58: 9101c3ff    	add	sp, sp, #112
100001e5c: d65f03c0    	ret

0000000100001e60 <_note_to_freq>:
100001e60: d10083ff    	sub	sp, sp, #32
100001e64: a9017bfd    	stp	x29, x30, [sp, #16]
100001e68: 910043fd    	add	x29, sp, #16
100001e6c: bc1fc3a0    	stur	s0, [x29, #-4]
100001e70: bc5fc3a0    	ldur	s0, [x29, #-4]
100001e74: 52a85148    	mov	w8, #1116340224
100001e78: 1e270101    	fmov	s1, w8
100001e7c: 1e213800    	fsub	s0, s0, s1
100001e80: bc1fc3a0    	stur	s0, [x29, #-4]
100001e84: bc5fc3a0    	ldur	s0, [x29, #-4]
100001e88: 52955568    	mov	w8, #43691
100001e8c: 72a7b548    	movk	w8, #15786, lsl #16
100001e90: 1e270101    	fmov	s1, w8
100001e94: 1e210800    	fmul	s0, s0, s1
100001e98: 94000110    	bl	0x1000022d8 <_vo_pow2f>
100001e9c: 1e204001    	fmov	s1, s0
100001ea0: 52a87b88    	mov	w8, #1138491392
100001ea4: 1e270100    	fmov	s0, w8
100001ea8: 1e210800    	fmul	s0, s0, s1
100001eac: bd000be0    	str	s0, [sp, #8]
100001eb0: bd400be0    	ldr	s0, [sp, #8]
100001eb4: 529867c8    	mov	w8, #49982
100001eb8: 72a6f5c8    	movk	w8, #14254, lsl #16
100001ebc: 1e270101    	fmov	s1, w8
100001ec0: 1e210800    	fmul	s0, s0, s1
100001ec4: bd000be0    	str	s0, [sp, #8]
100001ec8: bd400be0    	ldr	s0, [sp, #8]
100001ecc: a9417bfd    	ldp	x29, x30, [sp, #16]
100001ed0: 910083ff    	add	sp, sp, #32
100001ed4: d65f03c0    	ret

0000000100001ed8 <_decibels_to_gain>:
100001ed8: d10083ff    	sub	sp, sp, #32
100001edc: a9017bfd    	stp	x29, x30, [sp, #16]
100001ee0: 910043fd    	add	x29, sp, #16
100001ee4: bc1fc3a0    	stur	s0, [x29, #-4]
100001ee8: 52b84e08    	mov	w8, #-1032847360
100001eec: 1e270100    	fmov	s0, w8
100001ef0: bd000be0    	str	s0, [sp, #8]
100001ef4: bc5fc3a0    	ldur	s0, [x29, #-4]
100001ef8: bd400be1    	ldr	s1, [sp, #8]
100001efc: 1e212000    	fcmp	s0, s1
100001f00: 1a9fc7e8    	cset	w8, le
100001f04: 37000168    	tbnz	w8, #0, 0x100001f30 <_decibels_to_gain+0x58>
100001f08: 14000001    	b	0x100001f0c <_decibels_to_gain+0x34>
100001f0c: bc5fc3a0    	ldur	s0, [x29, #-4]
100001f10: 529999a8    	mov	w8, #52429
100001f14: 72a7a988    	movk	w8, #15692, lsl #16
100001f18: 1e270101    	fmov	s1, w8
100001f1c: 1e210801    	fmul	s1, s0, s1
100001f20: 1e249000    	fmov	s0, #10.00000000
100001f24: 9400012d    	bl	0x1000023d8 <_vo_powf>
100001f28: bd0007e0    	str	s0, [sp, #4]
100001f2c: 14000004    	b	0x100001f3c <_decibels_to_gain+0x64>
100001f30: 2f00e400    	movi	d0, #0000000000000000
100001f34: bd0007e0    	str	s0, [sp, #4]
100001f38: 14000001    	b	0x100001f3c <_decibels_to_gain+0x64>
100001f3c: bd4007e0    	ldr	s0, [sp, #4]
100001f40: a9417bfd    	ldp	x29, x30, [sp, #16]
100001f44: 910083ff    	add	sp, sp, #32
100001f48: d65f03c0    	ret

0000000100001f4c <_gain_to_decibels>:
100001f4c: d10083ff    	sub	sp, sp, #32
100001f50: a9017bfd    	stp	x29, x30, [sp, #16]
100001f54: 910043fd    	add	x29, sp, #16
100001f58: bc1fc3a0    	stur	s0, [x29, #-4]
100001f5c: 52b84e08    	mov	w8, #-1032847360
100001f60: 1e270100    	fmov	s0, w8
100001f64: bd000be0    	str	s0, [sp, #8]
100001f68: bc5fc3a0    	ldur	s0, [x29, #-4]
100001f6c: 1e202008    	fcmp	s0, #0.0
100001f70: 1a9fc7e8    	cset	w8, le
100001f74: 37000268    	tbnz	w8, #0, 0x100001fc0 <_gain_to_decibels+0x74>
100001f78: 14000001    	b	0x100001f7c <_gain_to_decibels+0x30>
100001f7c: bd400be0    	ldr	s0, [sp, #8]
100001f80: bd0003e0    	str	s0, [sp]
100001f84: bc5fc3a0    	ldur	s0, [x29, #-4]
100001f88: 9400015e    	bl	0x100002500 <_vo_log2f>
100001f8c: 1e204001    	fmov	s1, s0
100001f90: bd4003e0    	ldr	s0, [sp]
100001f94: 52841368    	mov	w8, #8347
100001f98: 72a7d348    	movk	w8, #16026, lsl #16
100001f9c: 1e270102    	fmov	s2, w8
100001fa0: 1e220821    	fmul	s1, s1, s2
100001fa4: 1e22c021    	fcvt	d1, s1
100001fa8: 1e669002    	fmov	d2, #20.00000000
100001fac: 1e620821    	fmul	d1, d1, d2
100001fb0: 1e624021    	fcvt	s1, d1
100001fb4: 9400000a    	bl	0x100001fdc <_vo_maxf>
100001fb8: bd0007e0    	str	s0, [sp, #4]
100001fbc: 14000004    	b	0x100001fcc <_gain_to_decibels+0x80>
100001fc0: bd400be0    	ldr	s0, [sp, #8]
100001fc4: bd0007e0    	str	s0, [sp, #4]
100001fc8: 14000001    	b	0x100001fcc <_gain_to_decibels+0x80>
100001fcc: bd4007e0    	ldr	s0, [sp, #4]
100001fd0: a9417bfd    	ldp	x29, x30, [sp, #16]
100001fd4: 910083ff    	add	sp, sp, #32
100001fd8: d65f03c0    	ret

0000000100001fdc <_vo_maxf>:
100001fdc: d10043ff    	sub	sp, sp, #16
100001fe0: bd000fe0    	str	s0, [sp, #12]
100001fe4: bd000be1    	str	s1, [sp, #8]
100001fe8: bd400fe0    	ldr	s0, [sp, #12]
100001fec: bd400be1    	ldr	s1, [sp, #8]
100001ff0: 1e212000    	fcmp	s0, s1
100001ff4: 1a9fc7e8    	cset	w8, le
100001ff8: 370000a8    	tbnz	w8, #0, 0x10000200c <_vo_maxf+0x30>
100001ffc: 14000001    	b	0x100002000 <_vo_maxf+0x24>
100002000: bd400fe0    	ldr	s0, [sp, #12]
100002004: bd0007e0    	str	s0, [sp, #4]
100002008: 14000004    	b	0x100002018 <_vo_maxf+0x3c>
10000200c: bd400be0    	ldr	s0, [sp, #8]
100002010: bd0007e0    	str	s0, [sp, #4]
100002014: 14000001    	b	0x100002018 <_vo_maxf+0x3c>
100002018: bd4007e0    	ldr	s0, [sp, #4]
10000201c: 910043ff    	add	sp, sp, #16
100002020: d65f03c0    	ret

0000000100002024 <_vo_adj_quadratic>:
100002024: d10043ff    	sub	sp, sp, #16
100002028: bd000fe0    	str	s0, [sp, #12]
10000202c: bd400fe0    	ldr	s0, [sp, #12]
100002030: bd400fe1    	ldr	s1, [sp, #12]
100002034: 1e210800    	fmul	s0, s0, s1
100002038: bd000be0    	str	s0, [sp, #8]
10000203c: bd400be0    	ldr	s0, [sp, #8]
100002040: bd400be1    	ldr	s1, [sp, #8]
100002044: 1e210800    	fmul	s0, s0, s1
100002048: 910043ff    	add	sp, sp, #16
10000204c: d65f03c0    	ret

0000000100002050 <_vo_adj_square>:
100002050: d10043ff    	sub	sp, sp, #16
100002054: bd000fe0    	str	s0, [sp, #12]
100002058: bd400fe0    	ldr	s0, [sp, #12]
10000205c: bd400fe1    	ldr	s1, [sp, #12]
100002060: 1e210800    	fmul	s0, s0, s1
100002064: bd000fe0    	str	s0, [sp, #12]
100002068: bd400fe0    	ldr	s0, [sp, #12]
10000206c: 910043ff    	add	sp, sp, #16
100002070: d65f03c0    	ret

0000000100002074 <_get_rms_level>:
100002074: d100c3ff    	sub	sp, sp, #48
100002078: f90017e0    	str	x0, [sp, #40]
10000207c: b90027e1    	str	w1, [sp, #36]
100002080: f9000fe2    	str	x2, [sp, #24]
100002084: b98027e9    	ldrsw	x9, [sp, #36]
100002088: f94017e8    	ldr	x8, [sp, #40]
10000208c: 8b090908    	add	x8, x8, x9, lsl #2
100002090: f90017e8    	str	x8, [sp, #40]
100002094: 2f00e400    	movi	d0, #0000000000000000
100002098: bd0017e0    	str	s0, [sp, #20]
10000209c: b9000fff    	str	wzr, [sp, #12]
1000020a0: 14000001    	b	0x1000020a4 <_get_rms_level+0x30>
1000020a4: b9400fe8    	ldr	w8, [sp, #12]
1000020a8: f9400fe9    	ldr	x9, [sp, #24]
1000020ac: eb090108    	subs	x8, x8, x9
1000020b0: 1a9f37e8    	cset	w8, hs
1000020b4: 37000228    	tbnz	w8, #0, 0x1000020f8 <_get_rms_level+0x84>
1000020b8: 14000001    	b	0x1000020bc <_get_rms_level+0x48>
1000020bc: f94017e8    	ldr	x8, [sp, #40]
1000020c0: 91001109    	add	x9, x8, #4
1000020c4: f90017e9    	str	x9, [sp, #40]
1000020c8: bd400100    	ldr	s0, [x8]
1000020cc: bd0013e0    	str	s0, [sp, #16]
1000020d0: bd4013e0    	ldr	s0, [sp, #16]
1000020d4: bd4013e1    	ldr	s1, [sp, #16]
1000020d8: bd4017e2    	ldr	s2, [sp, #20]
1000020dc: 1f010800    	fmadd	s0, s0, s1, s2
1000020e0: bd0017e0    	str	s0, [sp, #20]
1000020e4: 14000001    	b	0x1000020e8 <_get_rms_level+0x74>
1000020e8: b9400fe8    	ldr	w8, [sp, #12]
1000020ec: 11000508    	add	w8, w8, #1
1000020f0: b9000fe8    	str	w8, [sp, #12]
1000020f4: 17ffffec    	b	0x1000020a4 <_get_rms_level+0x30>
1000020f8: bd4017e0    	ldr	s0, [sp, #20]
1000020fc: fd400fe1    	ldr	d1, [sp, #24]
100002100: 9e660028    	fmov	x8, d1
100002104: 9e230101    	ucvtf	s1, x8
100002108: 1e211800    	fdiv	s0, s0, s1
10000210c: 1e21c000    	fsqrt	s0, s0
100002110: 9100c3ff    	add	sp, sp, #48
100002114: d65f03c0    	ret

0000000100002118 <_vo_float_to_fraction>:
100002118: d10103ff    	sub	sp, sp, #64
10000211c: bd0037e0    	str	s0, [sp, #52]
100002120: f90017e0    	str	x0, [sp, #40]
100002124: bd0027e1    	str	s1, [sp, #36]
100002128: bd4037e0    	ldr	s0, [sp, #52]
10000212c: 1e300008    	fcvtms	w8, s0
100002130: b90023e8    	str	w8, [sp, #32]
100002134: bd4023e0    	ldr	s0, [sp, #32]
100002138: 5e21d801    	scvtf	s1, s0
10000213c: bd4037e0    	ldr	s0, [sp, #52]
100002140: 1e213800    	fsub	s0, s0, s1
100002144: bd0037e0    	str	s0, [sp, #52]
100002148: bd4037e0    	ldr	s0, [sp, #52]
10000214c: bd4027e1    	ldr	s1, [sp, #36]
100002150: 1e212000    	fcmp	s0, s1
100002154: 1a9f47e8    	cset	w8, pl
100002158: 37000168    	tbnz	w8, #0, 0x100002184 <_vo_float_to_fraction+0x6c>
10000215c: 14000001    	b	0x100002160 <_vo_float_to_fraction+0x48>
100002160: b94023e8    	ldr	w8, [sp, #32]
100002164: f94017e9    	ldr	x9, [sp, #40]
100002168: b9000128    	str	w8, [x9]
10000216c: f94017e9    	ldr	x9, [sp, #40]
100002170: 52800028    	mov	w8, #1
100002174: b9000528    	str	w8, [x9, #4]
100002178: f94017e8    	ldr	x8, [sp, #40]
10000217c: f9001fe8    	str	x8, [sp, #56]
100002180: 14000053    	b	0x1000022cc <_vo_float_to_fraction+0x1b4>
100002184: bd4027e1    	ldr	s1, [sp, #36]
100002188: 1e2e1000    	fmov	s0, #1.00000000
10000218c: 1e213800    	fsub	s0, s0, s1
100002190: bd4037e1    	ldr	s1, [sp, #52]
100002194: 1e212000    	fcmp	s0, s1
100002198: 1a9f47e8    	cset	w8, pl
10000219c: 37000188    	tbnz	w8, #0, 0x1000021cc <_vo_float_to_fraction+0xb4>
1000021a0: 14000001    	b	0x1000021a4 <_vo_float_to_fraction+0x8c>
1000021a4: b94023e9    	ldr	w9, [sp, #32]
1000021a8: 52800028    	mov	w8, #1
1000021ac: 11000529    	add	w9, w9, #1
1000021b0: f94017ea    	ldr	x10, [sp, #40]
1000021b4: b9000149    	str	w9, [x10]
1000021b8: f94017e9    	ldr	x9, [sp, #40]
1000021bc: b9000528    	str	w8, [x9, #4]
1000021c0: f94017e8    	ldr	x8, [sp, #40]
1000021c4: f9001fe8    	str	x8, [sp, #56]
1000021c8: 14000041    	b	0x1000022cc <_vo_float_to_fraction+0x1b4>
1000021cc: 14000001    	b	0x1000021d0 <_vo_float_to_fraction+0xb8>
1000021d0: b90017ff    	str	wzr, [sp, #20]
1000021d4: 52800028    	mov	w8, #1
1000021d8: b90013e8    	str	w8, [sp, #16]
1000021dc: b9001fe8    	str	w8, [sp, #28]
1000021e0: b9001be8    	str	w8, [sp, #24]
1000021e4: 14000001    	b	0x1000021e8 <_vo_float_to_fraction+0xd0>
1000021e8: b94017e8    	ldr	w8, [sp, #20]
1000021ec: b9401fe9    	ldr	w9, [sp, #28]
1000021f0: 0b090108    	add	w8, w8, w9
1000021f4: b9000fe8    	str	w8, [sp, #12]
1000021f8: b94013e8    	ldr	w8, [sp, #16]
1000021fc: b9401be9    	ldr	w9, [sp, #24]
100002200: 0b090108    	add	w8, w8, w9
100002204: b9000be8    	str	w8, [sp, #8]
100002208: bd400be0    	ldr	s0, [sp, #8]
10000220c: 5e21d800    	scvtf	s0, s0
100002210: bd4037e1    	ldr	s1, [sp, #52]
100002214: bd4027e2    	ldr	s2, [sp, #36]
100002218: 1e222821    	fadd	s1, s1, s2
10000221c: 1e210800    	fmul	s0, s0, s1
100002220: bd400fe1    	ldr	s1, [sp, #12]
100002224: 5e21d821    	scvtf	s1, s1
100002228: 1e212000    	fcmp	s0, s1
10000222c: 1a9f47e8    	cset	w8, pl
100002230: 370000e8    	tbnz	w8, #0, 0x10000224c <_vo_float_to_fraction+0x134>
100002234: 14000001    	b	0x100002238 <_vo_float_to_fraction+0x120>
100002238: b9400fe8    	ldr	w8, [sp, #12]
10000223c: b9001fe8    	str	w8, [sp, #28]
100002240: b9400be8    	ldr	w8, [sp, #8]
100002244: b9001be8    	str	w8, [sp, #24]
100002248: 14000020    	b	0x1000022c8 <_vo_float_to_fraction+0x1b0>
10000224c: bd400fe0    	ldr	s0, [sp, #12]
100002250: 5e21d800    	scvtf	s0, s0
100002254: bd4037e1    	ldr	s1, [sp, #52]
100002258: bd4027e2    	ldr	s2, [sp, #36]
10000225c: 1e223821    	fsub	s1, s1, s2
100002260: bd400be2    	ldr	s2, [sp, #8]
100002264: 5e21d842    	scvtf	s2, s2
100002268: 1e220821    	fmul	s1, s1, s2
10000226c: 1e212000    	fcmp	s0, s1
100002270: 1a9f47e8    	cset	w8, pl
100002274: 370000e8    	tbnz	w8, #0, 0x100002290 <_vo_float_to_fraction+0x178>
100002278: 14000001    	b	0x10000227c <_vo_float_to_fraction+0x164>
10000227c: b9400fe8    	ldr	w8, [sp, #12]
100002280: b90017e8    	str	w8, [sp, #20]
100002284: b9400be8    	ldr	w8, [sp, #8]
100002288: b90013e8    	str	w8, [sp, #16]
10000228c: 1400000e    	b	0x1000022c4 <_vo_float_to_fraction+0x1ac>
100002290: b94023e8    	ldr	w8, [sp, #32]
100002294: b9400be9    	ldr	w9, [sp, #8]
100002298: 1b097d08    	mul	w8, w8, w9
10000229c: b9400fe9    	ldr	w9, [sp, #12]
1000022a0: 0b090108    	add	w8, w8, w9
1000022a4: f94017e9    	ldr	x9, [sp, #40]
1000022a8: b9000128    	str	w8, [x9]
1000022ac: b9400be8    	ldr	w8, [sp, #8]
1000022b0: f94017e9    	ldr	x9, [sp, #40]
1000022b4: b9000528    	str	w8, [x9, #4]
1000022b8: f94017e8    	ldr	x8, [sp, #40]
1000022bc: f9001fe8    	str	x8, [sp, #56]
1000022c0: 14000003    	b	0x1000022cc <_vo_float_to_fraction+0x1b4>
1000022c4: 14000001    	b	0x1000022c8 <_vo_float_to_fraction+0x1b0>
1000022c8: 17ffffc8    	b	0x1000021e8 <_vo_float_to_fraction+0xd0>
1000022cc: f9401fe0    	ldr	x0, [sp, #56]
1000022d0: 910103ff    	add	sp, sp, #64
1000022d4: d65f03c0    	ret

00000001000022d8 <_vo_pow2f>:
1000022d8: d10083ff    	sub	sp, sp, #32
1000022dc: bd001fe0    	str	s0, [sp, #28]
1000022e0: bd401fe0    	ldr	s0, [sp, #28]
1000022e4: 2f00e401    	movi	d1, #0000000000000000
1000022e8: 1e202008    	fcmp	s0, #0.0
1000022ec: 1a9f57e8    	cset	w8, mi
1000022f0: 12000108    	and	w8, w8, #0x1
1000022f4: 1e2e1000    	fmov	s0, #1.00000000
1000022f8: 72000108    	ands	w8, w8, #0x1
1000022fc: 1e211c00    	fcsel	s0, s0, s1, ne
100002300: bd001be0    	str	s0, [sp, #24]
100002304: bd401fe0    	ldr	s0, [sp, #28]
100002308: 52b85f88    	mov	w8, #-1023672320
10000230c: 1e270101    	fmov	s1, w8
100002310: 1e212000    	fcmp	s0, s1
100002314: 1a9f47e8    	cset	w8, pl
100002318: 370000c8    	tbnz	w8, #0, 0x100002330 <_vo_pow2f+0x58>
10000231c: 14000001    	b	0x100002320 <_vo_pow2f+0x48>
100002320: 52b85f88    	mov	w8, #-1023672320
100002324: 1e270100    	fmov	s0, w8
100002328: bd0007e0    	str	s0, [sp, #4]
10000232c: 14000004    	b	0x10000233c <_vo_pow2f+0x64>
100002330: bd401fe0    	ldr	s0, [sp, #28]
100002334: bd0007e0    	str	s0, [sp, #4]
100002338: 14000001    	b	0x10000233c <_vo_pow2f+0x64>
10000233c: bd4007e0    	ldr	s0, [sp, #4]
100002340: bd0017e0    	str	s0, [sp, #20]
100002344: bd4017e0    	ldr	s0, [sp, #20]
100002348: 1e380008    	fcvtzs	w8, s0
10000234c: b90013e8    	str	w8, [sp, #16]
100002350: bd4017e0    	ldr	s0, [sp, #20]
100002354: bd4013e1    	ldr	s1, [sp, #16]
100002358: 5e21d821    	scvtf	s1, s1
10000235c: 1e213800    	fsub	s0, s0, s1
100002360: bd401be1    	ldr	s1, [sp, #24]
100002364: 1e212800    	fadd	s0, s0, s1
100002368: bd000fe0    	str	s0, [sp, #12]
10000236c: bd4017e0    	ldr	s0, [sp, #20]
100002370: 52918a28    	mov	w8, #35921
100002374: 72a85e48    	movk	w8, #17138, lsl #16
100002378: 1e270101    	fmov	s1, w8
10000237c: 1e212800    	fadd	s0, s0, s1
100002380: bd400fe2    	ldr	s2, [sp, #12]
100002384: 529ebf08    	mov	w8, #62968
100002388: 72a81348    	movk	w8, #16538, lsl #16
10000238c: 1e270101    	fmov	s1, w8
100002390: 1e223822    	fsub	s2, s1, s2
100002394: 529a5fc8    	mov	w8, #54014
100002398: 72a83ba8    	movk	w8, #16861, lsl #16
10000239c: 1e270101    	fmov	s1, w8
1000023a0: 1e221821    	fdiv	s1, s1, s2
1000023a4: 1e212802    	fadd	s2, s0, s1
1000023a8: bd400fe1    	ldr	s1, [sp, #12]
1000023ac: 529791a8    	mov	w8, #48269
1000023b0: 72b7f7c8    	movk	w8, #49086, lsl #16
1000023b4: 1e270100    	fmov	s0, w8
1000023b8: 1f010801    	fmadd	s1, s0, s1, s2
1000023bc: 0f026560    	movi.2s	v0, #75, lsl #24
1000023c0: 1e210800    	fmul	s0, s0, s1
1000023c4: 1e390008    	fcvtzu	w8, s0
1000023c8: b9000be8    	str	w8, [sp, #8]
1000023cc: bd400be0    	ldr	s0, [sp, #8]
1000023d0: 910083ff    	add	sp, sp, #32
1000023d4: d65f03c0    	ret

00000001000023d8 <_vo_powf>:
1000023d8: d10043ff    	sub	sp, sp, #16
1000023dc: bd000fe0    	str	s0, [sp, #12]
1000023e0: bd000be1    	str	s1, [sp, #8]
1000023e4: bd400fe0    	ldr	s0, [sp, #12]
1000023e8: bd0007e0    	str	s0, [sp, #4]
1000023ec: bd400be0    	ldr	s0, [sp, #8]
1000023f0: bd4007e1    	ldr	s1, [sp, #4]
1000023f4: 1e260028    	fmov	w8, s1
1000023f8: 52800029    	mov	w9, #1
1000023fc: 72a7f009    	movk	w9, #16256, lsl #16
100002400: 6b090108    	subs	w8, w8, w9
100002404: 1e220101    	scvtf	s1, w8
100002408: 529a7dc8    	mov	w8, #54254
10000240c: 72a9cfa8    	movk	w8, #20093, lsl #16
100002410: 1e270102    	fmov	s2, w8
100002414: 1f010800    	fmadd	s0, s0, s1, s2
100002418: 1e380008    	fcvtzs	w8, s0
10000241c: b90007e8    	str	w8, [sp, #4]
100002420: bd4007e0    	ldr	s0, [sp, #4]
100002424: 910043ff    	add	sp, sp, #16
100002428: d65f03c0    	ret

000000010000242c <_vo_pow10f>:
10000242c: d10083ff    	sub	sp, sp, #32
100002430: a9017bfd    	stp	x29, x30, [sp, #16]
100002434: 910043fd    	add	x29, sp, #16
100002438: bc1fc3a0    	stur	s0, [x29, #-4]
10000243c: bc5fc3a0    	ldur	s0, [x29, #-4]
100002440: 528bb1c8    	mov	w8, #23950
100002444: 72a80268    	movk	w8, #16403, lsl #16
100002448: 1e270101    	fmov	s1, w8
10000244c: 1e210800    	fmul	s0, s0, s1
100002450: 94000004    	bl	0x100002460 <_vo_expf>
100002454: a9417bfd    	ldp	x29, x30, [sp, #16]
100002458: 910083ff    	add	sp, sp, #32
10000245c: d65f03c0    	ret

0000000100002460 <_vo_expf>:
100002460: d10083ff    	sub	sp, sp, #32
100002464: bd001fe0    	str	s0, [sp, #28]
100002468: bd401fe0    	ldr	s0, [sp, #28]
10000246c: 52954768    	mov	w8, #43579
100002470: 72a7f708    	movk	w8, #16312, lsl #16
100002474: 1e270101    	fmov	s1, w8
100002478: 1e210800    	fmul	s0, s0, s1
10000247c: bd0017e0    	str	s0, [sp, #20]
100002480: bd4017e0    	ldr	s0, [sp, #20]
100002484: 1e254000    	frintm	s0, s0
100002488: bd0013e0    	str	s0, [sp, #16]
10000248c: bd4017e0    	ldr	s0, [sp, #20]
100002490: bd4013e1    	ldr	s1, [sp, #16]
100002494: 1e213800    	fsub	s0, s0, s1
100002498: bd000fe0    	str	s0, [sp, #12]
10000249c: bd4013e0    	ldr	s0, [sp, #16]
1000024a0: 1e380008    	fcvtzs	w8, s0
1000024a4: b9000be8    	str	w8, [sp, #8]
1000024a8: bd400fe1    	ldr	s1, [sp, #12]
1000024ac: 528b5b48    	mov	w8, #23258
1000024b0: 72a7e508    	movk	w8, #16168, lsl #16
1000024b4: 1e270102    	fmov	s2, w8
1000024b8: 52948308    	mov	w8, #42008
1000024bc: 72a7d588    	movk	w8, #16044, lsl #16
1000024c0: 1e270100    	fmov	s0, w8
1000024c4: 1f010800    	fmadd	s0, s0, s1, s2
1000024c8: bd400fe1    	ldr	s1, [sp, #12]
1000024cc: 52871088    	mov	w8, #14468
1000024d0: 72a7f008    	movk	w8, #16256, lsl #16
1000024d4: 1e270102    	fmov	s2, w8
1000024d8: 1f010800    	fmadd	s0, s0, s1, s2
1000024dc: bd001be0    	str	s0, [sp, #24]
1000024e0: b9400be9    	ldr	w9, [sp, #8]
1000024e4: bd401be0    	ldr	s0, [sp, #24]
1000024e8: 1e260008    	fmov	w8, s0
1000024ec: 0b095d08    	add	w8, w8, w9, lsl #23
1000024f0: b9001be8    	str	w8, [sp, #24]
1000024f4: bd401be0    	ldr	s0, [sp, #24]
1000024f8: 910083ff    	add	sp, sp, #32
1000024fc: d65f03c0    	ret

0000000100002500 <_vo_log2f>:
100002500: d10043ff    	sub	sp, sp, #16
100002504: bd000fe0    	str	s0, [sp, #12]
100002508: bd400fe0    	ldr	s0, [sp, #12]
10000250c: bd000be0    	str	s0, [sp, #8]
100002510: b9400be8    	ldr	w8, [sp, #8]
100002514: 12005908    	and	w8, w8, #0x7fffff
100002518: 32081508    	orr	w8, w8, #0x3f000000
10000251c: b90007e8    	str	w8, [sp, #4]
100002520: bd400be0    	ldr	s0, [sp, #8]
100002524: 7e21d800    	ucvtf	s0, s0
100002528: bd0003e0    	str	s0, [sp]
10000252c: bd4003e0    	ldr	s0, [sp]
100002530: 0f016681    	movi.2s	v1, #52, lsl #24
100002534: 1e210800    	fmul	s0, s0, s1
100002538: bd0003e0    	str	s0, [sp]
10000253c: bd4003e0    	ldr	s0, [sp]
100002540: 528e6ee8    	mov	w8, #29559
100002544: 72a85f08    	movk	w8, #17144, lsl #16
100002548: 1e270101    	fmov	s1, w8
10000254c: 1e213802    	fsub	s2, s0, s1
100002550: bd4007e1    	ldr	s1, [sp, #4]
100002554: 5297eea8    	mov	w8, #49013
100002558: 72b7f7e8    	movk	w8, #49087, lsl #16
10000255c: 1e270100    	fmov	s0, w8
100002560: 1f010800    	fmadd	s0, s0, s1, s2
100002564: bd4007e2    	ldr	s2, [sp, #4]
100002568: 52889f28    	mov	w8, #17657
10000256c: 72a7d688    	movk	w8, #16052, lsl #16
100002570: 1e270101    	fmov	s1, w8
100002574: 1e222822    	fadd	s2, s1, s2
100002578: 529d3468    	mov	w8, #59811
10000257c: 72a7fb88    	movk	w8, #16348, lsl #16
100002580: 1e270101    	fmov	s1, w8
100002584: 1e221821    	fdiv	s1, s1, s2
100002588: 1e213800    	fsub	s0, s0, s1
10000258c: 910043ff    	add	sp, sp, #16
100002590: d65f03c0    	ret

0000000100002594 <_vo_cos>:
100002594: d10043ff    	sub	sp, sp, #16
100002598: bd000fe0    	str	s0, [sp, #12]
10000259c: bd400fe0    	ldr	s0, [sp, #12]
1000025a0: 1e2a1002    	fmov	s2, #0.25000000
1000025a4: 1e223800    	fsub	s0, s0, s2
1000025a8: bd400fe1    	ldr	s1, [sp, #12]
1000025ac: 1e222821    	fadd	s1, s1, s2
1000025b0: 1e254021    	frintm	s1, s1
1000025b4: 1e213800    	fsub	s0, s0, s1
1000025b8: bd000fe0    	str	s0, [sp, #12]
1000025bc: bd400fe0    	ldr	s0, [sp, #12]
1000025c0: 1e261001    	fmov	s1, #16.00000000
1000025c4: 1e210800    	fmul	s0, s0, s1
1000025c8: bd400fe1    	ldr	s1, [sp, #12]
1000025cc: 1e20c021    	fabs	s1, s1
1000025d0: 1e2c1002    	fmov	s2, #0.50000000
1000025d4: 1e223821    	fsub	s1, s1, s2
1000025d8: 1e210800    	fmul	s0, s0, s1
1000025dc: bd000fe0    	str	s0, [sp, #12]
1000025e0: bd400fe1    	ldr	s1, [sp, #12]
1000025e4: 528cccc8    	mov	w8, #26214
1000025e8: 72a7ccc8    	movk	w8, #15974, lsl #16
1000025ec: 1e270100    	fmov	s0, w8
1000025f0: 1e210800    	fmul	s0, s0, s1
1000025f4: bd400fe1    	ldr	s1, [sp, #12]
1000025f8: 1e20c021    	fabs	s1, s1
1000025fc: 1e2e1002    	fmov	s2, #1.00000000
100002600: 1e223821    	fsub	s1, s1, s2
100002604: bd400fe2    	ldr	s2, [sp, #12]
100002608: 1f010800    	fmadd	s0, s0, s1, s2
10000260c: bd000fe0    	str	s0, [sp, #12]
100002610: bd400fe0    	ldr	s0, [sp, #12]
100002614: 910043ff    	add	sp, sp, #16
100002618: d65f03c0    	ret

000000010000261c <_vo_sin>:
10000261c: d10043ff    	sub	sp, sp, #16
100002620: bd000fe0    	str	s0, [sp, #12]
100002624: bd400fe0    	ldr	s0, [sp, #12]
100002628: 1e2c1002    	fmov	s2, #0.50000000
10000262c: 1e223800    	fsub	s0, s0, s2
100002630: bd400fe1    	ldr	s1, [sp, #12]
100002634: 1e254021    	frintm	s1, s1
100002638: 1e213800    	fsub	s0, s0, s1
10000263c: bd000fe0    	str	s0, [sp, #12]
100002640: bd400fe0    	ldr	s0, [sp, #12]
100002644: 1e261001    	fmov	s1, #16.00000000
100002648: 1e210800    	fmul	s0, s0, s1
10000264c: bd400fe1    	ldr	s1, [sp, #12]
100002650: 1e20c021    	fabs	s1, s1
100002654: 1e223821    	fsub	s1, s1, s2
100002658: 1e210800    	fmul	s0, s0, s1
10000265c: bd000fe0    	str	s0, [sp, #12]
100002660: bd400fe1    	ldr	s1, [sp, #12]
100002664: 528cccc8    	mov	w8, #26214
100002668: 72a7ccc8    	movk	w8, #15974, lsl #16
10000266c: 1e270100    	fmov	s0, w8
100002670: 1e210800    	fmul	s0, s0, s1
100002674: bd400fe1    	ldr	s1, [sp, #12]
100002678: 1e20c021    	fabs	s1, s1
10000267c: 1e2e1002    	fmov	s2, #1.00000000
100002680: 1e223821    	fsub	s1, s1, s2
100002684: bd400fe2    	ldr	s2, [sp, #12]
100002688: 1f010800    	fmadd	s0, s0, s1, s2
10000268c: bd000fe0    	str	s0, [sp, #12]
100002690: bd400fe0    	ldr	s0, [sp, #12]
100002694: 910043ff    	add	sp, sp, #16
100002698: d65f03c0    	ret

000000010000269c <_vo_tanf>:
10000269c: d10043ff    	sub	sp, sp, #16
1000026a0: bd000fe0    	str	s0, [sp, #12]
1000026a4: bd400fe0    	ldr	s0, [sp, #12]
1000026a8: bd400fe1    	ldr	s1, [sp, #12]
1000026ac: 1e210800    	fmul	s0, s0, s1
1000026b0: bd000be0    	str	s0, [sp, #8]
1000026b4: bd400fe0    	ldr	s0, [sp, #12]
1000026b8: bd400be1    	ldr	s1, [sp, #8]
1000026bc: bd400be2    	ldr	s2, [sp, #8]
1000026c0: bd400be4    	ldr	s4, [sp, #8]
1000026c4: 52b877a8    	mov	w8, #-1011023872
1000026c8: 1e270103    	fmov	s3, w8
1000026cc: 1e242863    	fadd	s3, s3, s4
1000026d0: 528b4008    	mov	w8, #23040
1000026d4: 72a8d0e8    	movk	w8, #18055, lsl #16
1000026d8: 1e270104    	fmov	s4, w8
1000026dc: 1f031043    	fmadd	s3, s2, s3, s4
1000026e0: 529ef808    	mov	w8, #63424
1000026e4: 72b90068    	movk	w8, #51203, lsl #16
1000026e8: 1e270102    	fmov	s2, w8
1000026ec: 1f030821    	fmadd	s1, s1, s3, s2
1000026f0: 1e210800    	fmul	s0, s0, s1
1000026f4: bd0007e0    	str	s0, [sp, #4]
1000026f8: bd400be0    	ldr	s0, [sp, #8]
1000026fc: bd400be1    	ldr	s1, [sp, #8]
100002700: bd400be4    	ldr	s4, [sp, #8]
100002704: 529c0008    	mov	w8, #57344
100002708: 72b8a888    	movk	w8, #50500, lsl #16
10000270c: 1e270105    	fmov	s5, w8
100002710: 1e279003    	fmov	s3, #28.00000000
100002714: 1f041463    	fmadd	s3, s3, s4, s5
100002718: 52944008    	mov	w8, #41472
10000271c: 72a8ee68    	movk	w8, #18291, lsl #16
100002720: 1e270104    	fmov	s4, w8
100002724: 1f031021    	fmadd	s1, s1, s3, s4
100002728: 1f010800    	fmadd	s0, s0, s1, s2
10000272c: bd0003e0    	str	s0, [sp]
100002730: bd4007e0    	ldr	s0, [sp, #4]
100002734: bd4003e1    	ldr	s1, [sp]
100002738: 1e211800    	fdiv	s0, s0, s1
10000273c: 910043ff    	add	sp, sp, #16
100002740: d65f03c0    	ret

0000000100002744 <_vo_tanh_c3>:
100002744: d100c3ff    	sub	sp, sp, #48
100002748: bd002fe0    	str	s0, [sp, #44]
10000274c: 52920ec8    	mov	w8, #36982
100002750: 72a7a008    	movk	w8, #15616, lsl #16
100002754: 1e270101    	fmov	s1, w8
100002758: bd002be1    	str	s1, [sp, #40]
10000275c: 528e97a8    	mov	w8, #29885
100002760: 72a7d1a8    	movk	w8, #16013, lsl #16
100002764: 1e270100    	fmov	s0, w8
100002768: bd0027e0    	str	s0, [sp, #36]
10000276c: 52954768    	mov	w8, #43579
100002770: 72a7f708    	movk	w8, #16312, lsl #16
100002774: 1e270103    	fmov	s3, w8
100002778: bd0023e3    	str	s3, [sp, #32]
10000277c: bd402fe2    	ldr	s2, [sp, #44]
100002780: 1e230842    	fmul	s2, s2, s3
100002784: bd002fe2    	str	s2, [sp, #44]
100002788: bd402fe2    	ldr	s2, [sp, #44]
10000278c: 1e380048    	fcvtzs	w8, s2
100002790: b9001fe8    	str	w8, [sp, #28]
100002794: bd402fe2    	ldr	s2, [sp, #44]
100002798: bd401fe4    	ldr	s4, [sp, #28]
10000279c: 5e21d884    	scvtf	s4, s4
1000027a0: 1e243842    	fsub	s2, s2, s4
1000027a4: bd001be2    	str	s2, [sp, #24]
1000027a8: bd401be2    	ldr	s2, [sp, #24]
1000027ac: bd401be4    	ldr	s4, [sp, #24]
1000027b0: 1e240842    	fmul	s2, s2, s4
1000027b4: bd0017e2    	str	s2, [sp, #20]
1000027b8: bd4017e2    	ldr	s2, [sp, #20]
1000027bc: 1f020c00    	fmadd	s0, s0, s2, s3
1000027c0: bd0013e0    	str	s0, [sp, #16]
1000027c4: bd401be2    	ldr	s2, [sp, #24]
1000027c8: bd4017e0    	ldr	s0, [sp, #20]
1000027cc: 1e210800    	fmul	s0, s0, s1
1000027d0: bd401be1    	ldr	s1, [sp, #24]
1000027d4: 1f010800    	fmadd	s0, s0, s1, s2
1000027d8: bd000fe0    	str	s0, [sp, #12]
1000027dc: bd400fe0    	ldr	s0, [sp, #12]
1000027e0: bd4013e1    	ldr	s1, [sp, #16]
1000027e4: 1e212800    	fadd	s0, s0, s1
1000027e8: bd000be0    	str	s0, [sp, #8]
1000027ec: b9401fe9    	ldr	w9, [sp, #28]
1000027f0: bd400be0    	ldr	s0, [sp, #8]
1000027f4: 1e260008    	fmov	w8, s0
1000027f8: 0b096108    	add	w8, w8, w9, lsl #24
1000027fc: b9000be8    	str	w8, [sp, #8]
100002800: bd400fe0    	ldr	s0, [sp, #12]
100002804: bd4013e1    	ldr	s1, [sp, #16]
100002808: 1e213800    	fsub	s0, s0, s1
10000280c: bd0007e0    	str	s0, [sp, #4]
100002810: bd400be0    	ldr	s0, [sp, #8]
100002814: bd4007e1    	ldr	s1, [sp, #4]
100002818: 1e212800    	fadd	s0, s0, s1
10000281c: bd400be1    	ldr	s1, [sp, #8]
100002820: bd4007e2    	ldr	s2, [sp, #4]
100002824: 1e223821    	fsub	s1, s1, s2
100002828: 1e211800    	fdiv	s0, s0, s1
10000282c: 9100c3ff    	add	sp, sp, #48
100002830: d65f03c0    	ret

0000000100002834 <_vo_memcpy>:
100002834: d100c3ff    	sub	sp, sp, #48
100002838: f90017e0    	str	x0, [sp, #40]
10000283c: f90013e1    	str	x1, [sp, #32]
100002840: f9000fe2    	str	x2, [sp, #24]
100002844: f94017e8    	ldr	x8, [sp, #40]
100002848: f9000be8    	str	x8, [sp, #16]
10000284c: f94013e8    	ldr	x8, [sp, #32]
100002850: f90007e8    	str	x8, [sp, #8]
100002854: 14000001    	b	0x100002858 <_vo_memcpy+0x24>
100002858: f9400fe8    	ldr	x8, [sp, #24]
10000285c: f1000509    	subs	x9, x8, #1
100002860: f9000fe9    	str	x9, [sp, #24]
100002864: f1000108    	subs	x8, x8, #0
100002868: 1a9f17e8    	cset	w8, eq
10000286c: 37000168    	tbnz	w8, #0, 0x100002898 <_vo_memcpy+0x64>
100002870: 14000001    	b	0x100002874 <_vo_memcpy+0x40>
100002874: f94007e8    	ldr	x8, [sp, #8]
100002878: 91000509    	add	x9, x8, #1
10000287c: f90007e9    	str	x9, [sp, #8]
100002880: 39400108    	ldrb	w8, [x8]
100002884: f9400be9    	ldr	x9, [sp, #16]
100002888: 9100052a    	add	x10, x9, #1
10000288c: f9000bea    	str	x10, [sp, #16]
100002890: 39000128    	strb	w8, [x9]
100002894: 17fffff1    	b	0x100002858 <_vo_memcpy+0x24>
100002898: f9400be0    	ldr	x0, [sp, #16]
10000289c: 9100c3ff    	add	sp, sp, #48
1000028a0: d65f03c0    	ret

00000001000028a4 <_vo_strlen>:
1000028a4: d10043ff    	sub	sp, sp, #16
1000028a8: f90007e0    	str	x0, [sp, #8]
1000028ac: b90007ff    	str	wzr, [sp, #4]
1000028b0: 14000001    	b	0x1000028b4 <_vo_strlen+0x10>
1000028b4: f94007e8    	ldr	x8, [sp, #8]
1000028b8: 91000509    	add	x9, x8, #1
1000028bc: f90007e9    	str	x9, [sp, #8]
1000028c0: 39400108    	ldrb	w8, [x8]
1000028c4: 71000108    	subs	w8, w8, #0
1000028c8: 1a9f17e8    	cset	w8, eq
1000028cc: 370000c8    	tbnz	w8, #0, 0x1000028e4 <_vo_strlen+0x40>
1000028d0: 14000001    	b	0x1000028d4 <_vo_strlen+0x30>
1000028d4: b94007e8    	ldr	w8, [sp, #4]
1000028d8: 11000508    	add	w8, w8, #1
1000028dc: b90007e8    	str	w8, [sp, #4]
1000028e0: 17fffff5    	b	0x1000028b4 <_vo_strlen+0x10>
1000028e4: b94007e8    	ldr	w8, [sp, #4]
1000028e8: 12003d00    	and	w0, w8, #0xffff
1000028ec: 910043ff    	add	sp, sp, #16
1000028f0: d65f03c0    	ret

00000001000028f4 <_vo_memset>:
1000028f4: d10083ff    	sub	sp, sp, #32
1000028f8: f9000fe0    	str	x0, [sp, #24]
1000028fc: 39005fe1    	strb	w1, [sp, #23]
100002900: f90007e2    	str	x2, [sp, #8]
100002904: f9400fe8    	ldr	x8, [sp, #24]
100002908: f90003e8    	str	x8, [sp]
10000290c: 14000001    	b	0x100002910 <_vo_memset+0x1c>
100002910: f94007e8    	ldr	x8, [sp, #8]
100002914: f1000509    	subs	x9, x8, #1
100002918: f90007e9    	str	x9, [sp, #8]
10000291c: f1000108    	subs	x8, x8, #0
100002920: 1a9f17e8    	cset	w8, eq
100002924: 37000108    	tbnz	w8, #0, 0x100002944 <_vo_memset+0x50>
100002928: 14000001    	b	0x10000292c <_vo_memset+0x38>
10000292c: 39405fe8    	ldrb	w8, [sp, #23]
100002930: f94003e9    	ldr	x9, [sp]
100002934: 9100052a    	add	x10, x9, #1
100002938: f90003ea    	str	x10, [sp]
10000293c: 39000128    	strb	w8, [x9]
100002940: 17fffff4    	b	0x100002910 <_vo_memset+0x1c>
100002944: 910083ff    	add	sp, sp, #32
100002948: d65f03c0    	ret

000000010000294c <_vo_memcpy_32>:
10000294c: d100c3ff    	sub	sp, sp, #48
100002950: f90017e0    	str	x0, [sp, #40]
100002954: f90013e1    	str	x1, [sp, #32]
100002958: f9000fe2    	str	x2, [sp, #24]
10000295c: f94017e8    	ldr	x8, [sp, #40]
100002960: f9000be8    	str	x8, [sp, #16]
100002964: f94013e8    	ldr	x8, [sp, #32]
100002968: f90007e8    	str	x8, [sp, #8]
10000296c: f9400fe8    	ldr	x8, [sp, #24]
100002970: 91000d08    	add	x8, x8, #3
100002974: d2800089    	mov	x9, #4
100002978: 9ac90908    	udiv	x8, x8, x9
10000297c: f9000fe8    	str	x8, [sp, #24]
100002980: 14000001    	b	0x100002984 <_vo_memcpy_32+0x38>
100002984: f9400fe8    	ldr	x8, [sp, #24]
100002988: f1000509    	subs	x9, x8, #1
10000298c: f9000fe9    	str	x9, [sp, #24]
100002990: f1000108    	subs	x8, x8, #0
100002994: 1a9f17e8    	cset	w8, eq
100002998: 37000168    	tbnz	w8, #0, 0x1000029c4 <_vo_memcpy_32+0x78>
10000299c: 14000001    	b	0x1000029a0 <_vo_memcpy_32+0x54>
1000029a0: f94007e8    	ldr	x8, [sp, #8]
1000029a4: 91001109    	add	x9, x8, #4
1000029a8: f90007e9    	str	x9, [sp, #8]
1000029ac: b9400108    	ldr	w8, [x8]
1000029b0: f9400be9    	ldr	x9, [sp, #16]
1000029b4: 9100112a    	add	x10, x9, #4
1000029b8: f9000bea    	str	x10, [sp, #16]
1000029bc: b9000128    	str	w8, [x9]
1000029c0: 17fffff1    	b	0x100002984 <_vo_memcpy_32+0x38>
1000029c4: f9400be0    	ldr	x0, [sp, #16]
1000029c8: 9100c3ff    	add	sp, sp, #48
1000029cc: d65f03c0    	ret

00000001000029d0 <_vo_memcpy_32_r>:
1000029d0: d100c3ff    	sub	sp, sp, #48
1000029d4: f90017e0    	str	x0, [sp, #40]
1000029d8: f90013e1    	str	x1, [sp, #32]
1000029dc: f9000fe2    	str	x2, [sp, #24]
1000029e0: f94017e8    	ldr	x8, [sp, #40]
1000029e4: f9000be8    	str	x8, [sp, #16]
1000029e8: f94013e8    	ldr	x8, [sp, #32]
1000029ec: f90007e8    	str	x8, [sp, #8]
1000029f0: 14000001    	b	0x1000029f4 <_vo_memcpy_32_r+0x24>
1000029f4: f9400fe8    	ldr	x8, [sp, #24]
1000029f8: f1000509    	subs	x9, x8, #1
1000029fc: f9000fe9    	str	x9, [sp, #24]
100002a00: f1000108    	subs	x8, x8, #0
100002a04: 1a9f17e8    	cset	w8, eq
100002a08: 37000168    	tbnz	w8, #0, 0x100002a34 <_vo_memcpy_32_r+0x64>
100002a0c: 14000001    	b	0x100002a10 <_vo_memcpy_32_r+0x40>
100002a10: f94007e8    	ldr	x8, [sp, #8]
100002a14: f1001109    	subs	x9, x8, #4
100002a18: f90007e9    	str	x9, [sp, #8]
100002a1c: b9400108    	ldr	w8, [x8]
100002a20: f9400be9    	ldr	x9, [sp, #16]
100002a24: f100112a    	subs	x10, x9, #4
100002a28: f9000bea    	str	x10, [sp, #16]
100002a2c: b9000128    	str	w8, [x9]
100002a30: 17fffff1    	b	0x1000029f4 <_vo_memcpy_32_r+0x24>
100002a34: f9400be0    	ldr	x0, [sp, #16]
100002a38: 9100c3ff    	add	sp, sp, #48
100002a3c: d65f03c0    	ret

0000000100002a40 <_vo_strlen_ex>:
100002a40: d10083ff    	sub	sp, sp, #32
100002a44: a9017bfd    	stp	x29, x30, [sp, #16]
100002a48: 910043fd    	add	x29, sp, #16
100002a4c: f90007e0    	str	x0, [sp, #8]
100002a50: f94007e0    	ldr	x0, [sp, #8]
100002a54: 97ffff94    	bl	0x1000028a4 <_vo_strlen>
100002a58: 12003c08    	and	w8, w0, #0xffff
100002a5c: 11000508    	add	w8, w8, #1
100002a60: 12003d00    	and	w0, w8, #0xffff
100002a64: a9417bfd    	ldp	x29, x30, [sp, #16]
100002a68: 910083ff    	add	sp, sp, #32
100002a6c: d65f03c0    	ret

0000000100002a70 <_vo_malloc>:
100002a70: d10103ff    	sub	sp, sp, #64
100002a74: a9037bfd    	stp	x29, x30, [sp, #48]
100002a78: 9100c3fd    	add	x29, sp, #48
100002a7c: f81f83a0    	stur	x0, [x29, #-8]
100002a80: 52800108    	mov	w8, #8
100002a84: b81f43a8    	stur	w8, [x29, #-12]
100002a88: f85f83a8    	ldur	x8, [x29, #-8]
100002a8c: 91002101    	add	x1, x8, #8
100002a90: d2800020    	mov	x0, #1
100002a94: 940004f8    	bl	0x100003e74 <_timespec_get+0x100003e74>
100002a98: f9000fe0    	str	x0, [sp, #24]
100002a9c: f9400fe8    	ldr	x8, [sp, #24]
100002aa0: f90007e8    	str	x8, [sp, #8]
100002aa4: f85f83a8    	ldur	x8, [x29, #-8]
100002aa8: f94007e9    	ldr	x9, [sp, #8]
100002aac: f9000128    	str	x8, [x9]
100002ab0: f9400fe8    	ldr	x8, [sp, #24]
100002ab4: f9000be8    	str	x8, [sp, #16]
100002ab8: f9400be8    	ldr	x8, [sp, #16]
100002abc: 91002100    	add	x0, x8, #8
100002ac0: a9437bfd    	ldp	x29, x30, [sp, #48]
100002ac4: 910103ff    	add	sp, sp, #64
100002ac8: d65f03c0    	ret

0000000100002acc <_vo_realloc>:
100002acc: d10103ff    	sub	sp, sp, #64
100002ad0: a9037bfd    	stp	x29, x30, [sp, #48]
100002ad4: 9100c3fd    	add	x29, sp, #48
100002ad8: f81f83a0    	stur	x0, [x29, #-8]
100002adc: f81f03a1    	stur	x1, [x29, #-16]
100002ae0: f85f03a0    	ldur	x0, [x29, #-16]
100002ae4: 97ffffe3    	bl	0x100002a70 <_vo_malloc>
100002ae8: f9000fe0    	str	x0, [sp, #24]
100002aec: f9400fe8    	ldr	x8, [sp, #24]
100002af0: f9000be8    	str	x8, [sp, #16]
100002af4: f85f83a8    	ldur	x8, [x29, #-8]
100002af8: f90007e8    	str	x8, [sp, #8]
100002afc: f85f83a0    	ldur	x0, [x29, #-8]
100002b00: 9400000b    	bl	0x100002b2c <_vo_get_malloc_size>
100002b04: f94007e1    	ldr	x1, [sp, #8]
100002b08: aa0003e2    	mov	x2, x0
100002b0c: f9400be0    	ldr	x0, [sp, #16]
100002b10: 97ffff49    	bl	0x100002834 <_vo_memcpy>
100002b14: f85f83a0    	ldur	x0, [x29, #-8]
100002b18: 9400000f    	bl	0x100002b54 <_vo_free>
100002b1c: f9400fe0    	ldr	x0, [sp, #24]
100002b20: a9437bfd    	ldp	x29, x30, [sp, #48]
100002b24: 910103ff    	add	sp, sp, #64
100002b28: d65f03c0    	ret

0000000100002b2c <_vo_get_malloc_size>:
100002b2c: d10043ff    	sub	sp, sp, #16
100002b30: f90007e0    	str	x0, [sp, #8]
100002b34: f94007e8    	ldr	x8, [sp, #8]
100002b38: f90003e8    	str	x8, [sp]
100002b3c: f94003e8    	ldr	x8, [sp]
100002b40: f1002109    	subs	x9, x8, #8
100002b44: f90003e9    	str	x9, [sp]
100002b48: f85f8100    	ldur	x0, [x8, #-8]
100002b4c: 910043ff    	add	sp, sp, #16
100002b50: d65f03c0    	ret

0000000100002b54 <_vo_free>:
100002b54: d100c3ff    	sub	sp, sp, #48
100002b58: a9027bfd    	stp	x29, x30, [sp, #32]
100002b5c: 910083fd    	add	x29, sp, #32
100002b60: f81f83a0    	stur	x0, [x29, #-8]
100002b64: 52800108    	mov	w8, #8
100002b68: b81f43a8    	stur	w8, [x29, #-12]
100002b6c: f85f83a8    	ldur	x8, [x29, #-8]
100002b70: f1000108    	subs	x8, x8, #0
100002b74: 1a9f07e8    	cset	w8, ne
100002b78: 37000068    	tbnz	w8, #0, 0x100002b84 <_vo_free+0x30>
100002b7c: 14000001    	b	0x100002b80 <_vo_free+0x2c>
100002b80: 14000009    	b	0x100002ba4 <_vo_free+0x50>
100002b84: f85f83a8    	ldur	x8, [x29, #-8]
100002b88: f90007e8    	str	x8, [sp, #8]
100002b8c: f94007e8    	ldr	x8, [sp, #8]
100002b90: f1002108    	subs	x8, x8, #8
100002b94: f90007e8    	str	x8, [sp, #8]
100002b98: f94007e0    	ldr	x0, [sp, #8]
100002b9c: 940004b9    	bl	0x100003e80 <_timespec_get+0x100003e80>
100002ba0: 14000001    	b	0x100002ba4 <_vo_free+0x50>
100002ba4: a9427bfd    	ldp	x29, x30, [sp, #32]
100002ba8: 9100c3ff    	add	sp, sp, #48
100002bac: d65f03c0    	ret

0000000100002bb0 <_vo_strcpy>:
100002bb0: d10043ff    	sub	sp, sp, #16
100002bb4: f90007e0    	str	x0, [sp, #8]
100002bb8: f90003e1    	str	x1, [sp]
100002bbc: 14000001    	b	0x100002bc0 <_vo_strcpy+0x10>
100002bc0: f94003e8    	ldr	x8, [sp]
100002bc4: 91000509    	add	x9, x8, #1
100002bc8: f90003e9    	str	x9, [sp]
100002bcc: 39c00108    	ldrsb	w8, [x8]
100002bd0: f94007e9    	ldr	x9, [sp, #8]
100002bd4: 9100052a    	add	x10, x9, #1
100002bd8: f90007ea    	str	x10, [sp, #8]
100002bdc: 39000128    	strb	w8, [x9]
100002be0: 71000108    	subs	w8, w8, #0
100002be4: 1a9f17e8    	cset	w8, eq
100002be8: 37000068    	tbnz	w8, #0, 0x100002bf4 <_vo_strcpy+0x44>
100002bec: 14000001    	b	0x100002bf0 <_vo_strcpy+0x40>
100002bf0: 17fffff4    	b	0x100002bc0 <_vo_strcpy+0x10>
100002bf4: f94007e0    	ldr	x0, [sp, #8]
100002bf8: 910043ff    	add	sp, sp, #16
100002bfc: d65f03c0    	ret

0000000100002c00 <_vo_reverse>:
100002c00: d100c3ff    	sub	sp, sp, #48
100002c04: a9027bfd    	stp	x29, x30, [sp, #32]
100002c08: 910083fd    	add	x29, sp, #32
100002c0c: f81f83a0    	stur	x0, [x29, #-8]
100002c10: b81f43bf    	stur	wzr, [x29, #-12]
100002c14: f85f83a0    	ldur	x0, [x29, #-8]
100002c18: 94000028    	bl	0x100002cb8 <_vo_strlen>
100002c1c: 12003c08    	and	w8, w0, #0xffff
100002c20: 71000508    	subs	w8, w8, #1
100002c24: b90013e8    	str	w8, [sp, #16]
100002c28: 14000001    	b	0x100002c2c <_vo_reverse+0x2c>
100002c2c: b85f43a8    	ldur	w8, [x29, #-12]
100002c30: b94013e9    	ldr	w9, [sp, #16]
100002c34: 6b090108    	subs	w8, w8, w9
100002c38: 1a9fb7e8    	cset	w8, ge
100002c3c: 37000388    	tbnz	w8, #0, 0x100002cac <_vo_reverse+0xac>
100002c40: 14000001    	b	0x100002c44 <_vo_reverse+0x44>
100002c44: f85f83a8    	ldur	x8, [x29, #-8]
100002c48: b89f43a9    	ldursw	x9, [x29, #-12]
100002c4c: 8b090108    	add	x8, x8, x9
100002c50: 39400108    	ldrb	w8, [x8]
100002c54: 39003fe8    	strb	w8, [sp, #15]
100002c58: f85f83a8    	ldur	x8, [x29, #-8]
100002c5c: b98013e9    	ldrsw	x9, [sp, #16]
100002c60: 8b090108    	add	x8, x8, x9
100002c64: 39400108    	ldrb	w8, [x8]
100002c68: f85f83a9    	ldur	x9, [x29, #-8]
100002c6c: b89f43aa    	ldursw	x10, [x29, #-12]
100002c70: 8b0a0129    	add	x9, x9, x10
100002c74: 39000128    	strb	w8, [x9]
100002c78: 39403fe8    	ldrb	w8, [sp, #15]
100002c7c: f85f83a9    	ldur	x9, [x29, #-8]
100002c80: b98013ea    	ldrsw	x10, [sp, #16]
100002c84: 8b0a0129    	add	x9, x9, x10
100002c88: 39000128    	strb	w8, [x9]
100002c8c: 14000001    	b	0x100002c90 <_vo_reverse+0x90>
100002c90: b85f43a8    	ldur	w8, [x29, #-12]
100002c94: 11000508    	add	w8, w8, #1
100002c98: b81f43a8    	stur	w8, [x29, #-12]
100002c9c: b94013e8    	ldr	w8, [sp, #16]
100002ca0: 71000508    	subs	w8, w8, #1
100002ca4: b90013e8    	str	w8, [sp, #16]
100002ca8: 17ffffe1    	b	0x100002c2c <_vo_reverse+0x2c>
100002cac: a9427bfd    	ldp	x29, x30, [sp, #32]
100002cb0: 9100c3ff    	add	sp, sp, #48
100002cb4: d65f03c0    	ret

0000000100002cb8 <_vo_strlen>:
100002cb8: d10043ff    	sub	sp, sp, #16
100002cbc: f90007e0    	str	x0, [sp, #8]
100002cc0: b90007ff    	str	wzr, [sp, #4]
100002cc4: 14000001    	b	0x100002cc8 <_vo_strlen+0x10>
100002cc8: f94007e8    	ldr	x8, [sp, #8]
100002ccc: 91000509    	add	x9, x8, #1
100002cd0: f90007e9    	str	x9, [sp, #8]
100002cd4: 39400108    	ldrb	w8, [x8]
100002cd8: 71000108    	subs	w8, w8, #0
100002cdc: 1a9f17e8    	cset	w8, eq
100002ce0: 370000c8    	tbnz	w8, #0, 0x100002cf8 <_vo_strlen+0x40>
100002ce4: 14000001    	b	0x100002ce8 <_vo_strlen+0x30>
100002ce8: b94007e8    	ldr	w8, [sp, #4]
100002cec: 11000508    	add	w8, w8, #1
100002cf0: b90007e8    	str	w8, [sp, #4]
100002cf4: 17fffff5    	b	0x100002cc8 <_vo_strlen+0x10>
100002cf8: b94007e8    	ldr	w8, [sp, #4]
100002cfc: 12003d00    	and	w0, w8, #0xffff
100002d00: 910043ff    	add	sp, sp, #16
100002d04: d65f03c0    	ret

0000000100002d08 <_vo_itoh>:
100002d08: d10103ff    	sub	sp, sp, #64
100002d0c: a9037bfd    	stp	x29, x30, [sp, #48]
100002d10: 9100c3fd    	add	x29, sp, #48
100002d14: b81fc3a0    	stur	w0, [x29, #-4]
100002d18: f81f03a1    	stur	x1, [x29, #-16]
100002d1c: 381ef3a2    	sturb	w2, [x29, #-17]
100002d20: 381ee3a3    	sturb	w3, [x29, #-18]
100002d24: f85f03a8    	ldur	x8, [x29, #-16]
100002d28: f9000be8    	str	x8, [sp, #16]
100002d2c: 14000001    	b	0x100002d30 <_vo_itoh+0x28>
100002d30: b85fc3a8    	ldur	w8, [x29, #-4]
100002d34: 71000108    	subs	w8, w8, #0
100002d38: 1a9f07e8    	cset	w8, ne
100002d3c: 52800029    	mov	w9, #1
100002d40: b9000be9    	str	w9, [sp, #8]
100002d44: 370000e8    	tbnz	w8, #0, 0x100002d60 <_vo_itoh+0x58>
100002d48: 14000001    	b	0x100002d4c <_vo_itoh+0x44>
100002d4c: 38def3a8    	ldursb	w8, [x29, #-17]
100002d50: 71000108    	subs	w8, w8, #0
100002d54: 1a9fd7e8    	cset	w8, gt
100002d58: b9000be8    	str	w8, [sp, #8]
100002d5c: 14000001    	b	0x100002d60 <_vo_itoh+0x58>
100002d60: b9400be8    	ldr	w8, [sp, #8]
100002d64: 36000588    	tbz	w8, #0, 0x100002e14 <_vo_itoh+0x10c>
100002d68: 14000001    	b	0x100002d6c <_vo_itoh+0x64>
100002d6c: b85fc3a8    	ldur	w8, [x29, #-4]
100002d70: 12000d08    	and	w8, w8, #0xf
100002d74: 39003fe8    	strb	w8, [sp, #15]
100002d78: b85fc3a8    	ldur	w8, [x29, #-4]
100002d7c: 71000108    	subs	w8, w8, #0
100002d80: 1a9f07e8    	cset	w8, ne
100002d84: 37000108    	tbnz	w8, #0, 0x100002da4 <_vo_itoh+0x9c>
100002d88: 14000001    	b	0x100002d8c <_vo_itoh+0x84>
100002d8c: 385ee3a8    	ldurb	w8, [x29, #-18]
100002d90: f9400be9    	ldr	x9, [sp, #16]
100002d94: 9100052a    	add	x10, x9, #1
100002d98: f9000bea    	str	x10, [sp, #16]
100002d9c: 39000128    	strb	w8, [x9]
100002da0: 14000015    	b	0x100002df4 <_vo_itoh+0xec>
100002da4: 39403fe8    	ldrb	w8, [sp, #15]
100002da8: 71002908    	subs	w8, w8, #10
100002dac: 1a9fa7e8    	cset	w8, lt
100002db0: 370000e8    	tbnz	w8, #0, 0x100002dcc <_vo_itoh+0xc4>
100002db4: 14000001    	b	0x100002db8 <_vo_itoh+0xb0>
100002db8: 39403fe8    	ldrb	w8, [sp, #15]
100002dbc: 71002908    	subs	w8, w8, #10
100002dc0: 11018508    	add	w8, w8, #97
100002dc4: b90007e8    	str	w8, [sp, #4]
100002dc8: 14000005    	b	0x100002ddc <_vo_itoh+0xd4>
100002dcc: 39403fe8    	ldrb	w8, [sp, #15]
100002dd0: 1100c108    	add	w8, w8, #48
100002dd4: b90007e8    	str	w8, [sp, #4]
100002dd8: 14000001    	b	0x100002ddc <_vo_itoh+0xd4>
100002ddc: b94007e8    	ldr	w8, [sp, #4]
100002de0: f9400be9    	ldr	x9, [sp, #16]
100002de4: 9100052a    	add	x10, x9, #1
100002de8: f9000bea    	str	x10, [sp, #16]
100002dec: 39000128    	strb	w8, [x9]
100002df0: 14000001    	b	0x100002df4 <_vo_itoh+0xec>
100002df4: b85fc3a8    	ldur	w8, [x29, #-4]
100002df8: 53047d08    	lsr	w8, w8, #4
100002dfc: b81fc3a8    	stur	w8, [x29, #-4]
100002e00: 385ef3a9    	ldurb	w9, [x29, #-17]
100002e04: 12800008    	mov	w8, #-1
100002e08: 0b290108    	add	w8, w8, w9, uxtb
100002e0c: 381ef3a8    	sturb	w8, [x29, #-17]
100002e10: 17ffffc8    	b	0x100002d30 <_vo_itoh+0x28>
100002e14: f9400be8    	ldr	x8, [sp, #16]
100002e18: 3900011f    	strb	wzr, [x8]
100002e1c: f85f03a0    	ldur	x0, [x29, #-16]
100002e20: 97ffff78    	bl	0x100002c00 <_vo_reverse>
100002e24: f9400be8    	ldr	x8, [sp, #16]
100002e28: 91000509    	add	x9, x8, #1
100002e2c: f9000be9    	str	x9, [sp, #16]
100002e30: 3900011f    	strb	wzr, [x8]
100002e34: f9400be0    	ldr	x0, [sp, #16]
100002e38: a9437bfd    	ldp	x29, x30, [sp, #48]
100002e3c: 910103ff    	add	sp, sp, #64
100002e40: d65f03c0    	ret

0000000100002e44 <_vo_itoa>:
100002e44: d10103ff    	sub	sp, sp, #64
100002e48: a9037bfd    	stp	x29, x30, [sp, #48]
100002e4c: 9100c3fd    	add	x29, sp, #48
100002e50: b81fc3a0    	stur	w0, [x29, #-4]
100002e54: f81f03a1    	stur	x1, [x29, #-16]
100002e58: 381ef3a2    	sturb	w2, [x29, #-17]
100002e5c: 381ee3a3    	sturb	w3, [x29, #-18]
100002e60: 381ed3a4    	sturb	w4, [x29, #-19]
100002e64: f85f03a8    	ldur	x8, [x29, #-16]
100002e68: f9000be8    	str	x8, [sp, #16]
100002e6c: b85fc3a8    	ldur	w8, [x29, #-4]
100002e70: b9001be8    	str	w8, [sp, #24]
100002e74: 71000108    	subs	w8, w8, #0
100002e78: 1a9fb7e8    	cset	w8, ge
100002e7c: 370000e8    	tbnz	w8, #0, 0x100002e98 <_vo_itoa+0x54>
100002e80: 14000001    	b	0x100002e84 <_vo_itoa+0x40>
100002e84: b85fc3a9    	ldur	w9, [x29, #-4]
100002e88: 52800008    	mov	w8, #0
100002e8c: 6b090108    	subs	w8, w8, w9
100002e90: b81fc3a8    	stur	w8, [x29, #-4]
100002e94: 14000001    	b	0x100002e98 <_vo_itoa+0x54>
100002e98: 14000001    	b	0x100002e9c <_vo_itoa+0x58>
100002e9c: b85fc3a8    	ldur	w8, [x29, #-4]
100002ea0: 385ef3aa    	ldurb	w10, [x29, #-17]
100002ea4: 1aca0d09    	sdiv	w9, w8, w10
100002ea8: 1b0a7d29    	mul	w9, w9, w10
100002eac: 6b090108    	subs	w8, w8, w9
100002eb0: b9000fe8    	str	w8, [sp, #12]
100002eb4: b9400fe8    	ldr	w8, [sp, #12]
100002eb8: 71002908    	subs	w8, w8, #10
100002ebc: 1a9fa7e8    	cset	w8, lt
100002ec0: 370000e8    	tbnz	w8, #0, 0x100002edc <_vo_itoa+0x98>
100002ec4: 14000001    	b	0x100002ec8 <_vo_itoa+0x84>
100002ec8: b9400fe8    	ldr	w8, [sp, #12]
100002ecc: 71002908    	subs	w8, w8, #10
100002ed0: 11018508    	add	w8, w8, #97
100002ed4: b9000be8    	str	w8, [sp, #8]
100002ed8: 14000005    	b	0x100002eec <_vo_itoa+0xa8>
100002edc: b9400fe8    	ldr	w8, [sp, #12]
100002ee0: 1100c108    	add	w8, w8, #48
100002ee4: b9000be8    	str	w8, [sp, #8]
100002ee8: 14000001    	b	0x100002eec <_vo_itoa+0xa8>
100002eec: b9400be8    	ldr	w8, [sp, #8]
100002ef0: f9400be9    	ldr	x9, [sp, #16]
100002ef4: 9100052a    	add	x10, x9, #1
100002ef8: f9000bea    	str	x10, [sp, #16]
100002efc: 39000128    	strb	w8, [x9]
100002f00: 385ee3a9    	ldurb	w9, [x29, #-18]
100002f04: 12800008    	mov	w8, #-1
100002f08: 0b290108    	add	w8, w8, w9, uxtb
100002f0c: 381ee3a8    	sturb	w8, [x29, #-18]
100002f10: 14000001    	b	0x100002f14 <_vo_itoa+0xd0>
100002f14: 385ef3a9    	ldurb	w9, [x29, #-17]
100002f18: b85fc3a8    	ldur	w8, [x29, #-4]
100002f1c: 1ac90d08    	sdiv	w8, w8, w9
100002f20: b81fc3a8    	stur	w8, [x29, #-4]
100002f24: 71000108    	subs	w8, w8, #0
100002f28: 1a9fd7e8    	cset	w8, gt
100002f2c: 3707fb88    	tbnz	w8, #0, 0x100002e9c <_vo_itoa+0x58>
100002f30: 14000001    	b	0x100002f34 <_vo_itoa+0xf0>
100002f34: 14000001    	b	0x100002f38 <_vo_itoa+0xf4>
100002f38: 38dee3a8    	ldursb	w8, [x29, #-18]
100002f3c: 71000509    	subs	w9, w8, #1
100002f40: 381ee3a9    	sturb	w9, [x29, #-18]
100002f44: 71000108    	subs	w8, w8, #0
100002f48: 1a9fc7e8    	cset	w8, le
100002f4c: 37000268    	tbnz	w8, #0, 0x100002f98 <_vo_itoa+0x154>
100002f50: 14000001    	b	0x100002f54 <_vo_itoa+0x110>
100002f54: 38ded3a8    	ldursb	w8, [x29, #-19]
100002f58: 71000108    	subs	w8, w8, #0
100002f5c: 1a9f17e8    	cset	w8, eq
100002f60: 370000a8    	tbnz	w8, #0, 0x100002f74 <_vo_itoa+0x130>
100002f64: 14000001    	b	0x100002f68 <_vo_itoa+0x124>
100002f68: 38ded3a8    	ldursb	w8, [x29, #-19]
100002f6c: b90007e8    	str	w8, [sp, #4]
100002f70: 14000004    	b	0x100002f80 <_vo_itoa+0x13c>
100002f74: 52800408    	mov	w8, #32
100002f78: b90007e8    	str	w8, [sp, #4]
100002f7c: 14000001    	b	0x100002f80 <_vo_itoa+0x13c>
100002f80: b94007e8    	ldr	w8, [sp, #4]
100002f84: f9400be9    	ldr	x9, [sp, #16]
100002f88: 9100052a    	add	x10, x9, #1
100002f8c: f9000bea    	str	x10, [sp, #16]
100002f90: 39000128    	strb	w8, [x9]
100002f94: 17ffffe9    	b	0x100002f38 <_vo_itoa+0xf4>
100002f98: b9401be8    	ldr	w8, [sp, #24]
100002f9c: 71000108    	subs	w8, w8, #0
100002fa0: 1a9fb7e8    	cset	w8, ge
100002fa4: 37000108    	tbnz	w8, #0, 0x100002fc4 <_vo_itoa+0x180>
100002fa8: 14000001    	b	0x100002fac <_vo_itoa+0x168>
100002fac: f9400be9    	ldr	x9, [sp, #16]
100002fb0: 91000528    	add	x8, x9, #1
100002fb4: f9000be8    	str	x8, [sp, #16]
100002fb8: 528005a8    	mov	w8, #45
100002fbc: 39000128    	strb	w8, [x9]
100002fc0: 14000001    	b	0x100002fc4 <_vo_itoa+0x180>
100002fc4: f9400be8    	ldr	x8, [sp, #16]
100002fc8: 3900011f    	strb	wzr, [x8]
100002fcc: f85f03a0    	ldur	x0, [x29, #-16]
100002fd0: 97ffff0c    	bl	0x100002c00 <_vo_reverse>
100002fd4: f9400be8    	ldr	x8, [sp, #16]
100002fd8: 91000509    	add	x9, x8, #1
100002fdc: f9000be9    	str	x9, [sp, #16]
100002fe0: 3900011f    	strb	wzr, [x8]
100002fe4: f9400be0    	ldr	x0, [sp, #16]
100002fe8: a9437bfd    	ldp	x29, x30, [sp, #48]
100002fec: 910103ff    	add	sp, sp, #64
100002ff0: d65f03c0    	ret

0000000100002ff4 <_vo_ftoa>:
100002ff4: d10103ff    	sub	sp, sp, #64
100002ff8: a9037bfd    	stp	x29, x30, [sp, #48]
100002ffc: 9100c3fd    	add	x29, sp, #48
100003000: bc1fc3a0    	stur	s0, [x29, #-4]
100003004: f81f03a0    	stur	x0, [x29, #-16]
100003008: 381ef3a1    	sturb	w1, [x29, #-17]
10000300c: 52800028    	mov	w8, #1
100003010: 0a080049    	and	w9, w2, w8
100003014: 381ee3a9    	sturb	w9, [x29, #-18]
100003018: b9001be8    	str	w8, [sp, #24]
10000301c: 385ef3a8    	ldurb	w8, [x29, #-17]
100003020: 39005fe8    	strb	w8, [sp, #23]
100003024: 14000001    	b	0x100003028 <_vo_ftoa+0x34>
100003028: 39405fe8    	ldrb	w8, [sp, #23]
10000302c: 12800009    	mov	w9, #-1
100003030: 0b280129    	add	w9, w9, w8, uxtb
100003034: 39005fe9    	strb	w9, [sp, #23]
100003038: 71000108    	subs	w8, w8, #0
10000303c: 1a9f17e8    	cset	w8, eq
100003040: 370000e8    	tbnz	w8, #0, 0x10000305c <_vo_ftoa+0x68>
100003044: 14000001    	b	0x100003048 <_vo_ftoa+0x54>
100003048: b9401be8    	ldr	w8, [sp, #24]
10000304c: 52800149    	mov	w9, #10
100003050: 1b097d08    	mul	w8, w8, w9
100003054: b9001be8    	str	w8, [sp, #24]
100003058: 17fffff4    	b	0x100003028 <_vo_ftoa+0x34>
10000305c: bc5fc3a0    	ldur	s0, [x29, #-4]
100003060: bd401be1    	ldr	s1, [sp, #24]
100003064: 5e21d821    	scvtf	s1, s1
100003068: 1e210800    	fmul	s0, s0, s1
10000306c: 1e380008    	fcvtzs	w8, s0
100003070: b90013e8    	str	w8, [sp, #16]
100003074: b94013e8    	ldr	w8, [sp, #16]
100003078: b9401be9    	ldr	w9, [sp, #24]
10000307c: 1ac90d08    	sdiv	w8, w8, w9
100003080: b9000fe8    	str	w8, [sp, #12]
100003084: b94013e8    	ldr	w8, [sp, #16]
100003088: 71000109    	subs	w9, w8, #0
10000308c: 1a9fa7e9    	cset	w9, lt
100003090: 12000129    	and	w9, w9, #0x1
100003094: 72000129    	ands	w9, w9, #0x1
100003098: 5a880508    	cneg	w8, w8, ne
10000309c: b9400fe9    	ldr	w9, [sp, #12]
1000030a0: b9401bea    	ldr	w10, [sp, #24]
1000030a4: 1b0a7d29    	mul	w9, w9, w10
1000030a8: 7100012a    	subs	w10, w9, #0
1000030ac: 1a9fa7ea    	cset	w10, lt
1000030b0: 1200014a    	and	w10, w10, #0x1
1000030b4: 7200014a    	ands	w10, w10, #0x1
1000030b8: 5a890529    	cneg	w9, w9, ne
1000030bc: 6b090108    	subs	w8, w8, w9
1000030c0: b9000be8    	str	w8, [sp, #8]
1000030c4: f85f03a8    	ldur	x8, [x29, #-16]
1000030c8: f90003e8    	str	x8, [sp]
1000030cc: bc5fc3a0    	ldur	s0, [x29, #-4]
1000030d0: 1e202008    	fcmp	s0, #0.0
1000030d4: 1a9f47e8    	cset	w8, pl
1000030d8: 37000188    	tbnz	w8, #0, 0x100003108 <_vo_ftoa+0x114>
1000030dc: 14000001    	b	0x1000030e0 <_vo_ftoa+0xec>
1000030e0: b9400fe9    	ldr	w9, [sp, #12]
1000030e4: 52800008    	mov	w8, #0
1000030e8: 6b090108    	subs	w8, w8, w9
1000030ec: b9000fe8    	str	w8, [sp, #12]
1000030f0: f94003e9    	ldr	x9, [sp]
1000030f4: 91000528    	add	x8, x9, #1
1000030f8: f90003e8    	str	x8, [sp]
1000030fc: 528005a8    	mov	w8, #45
100003100: 39000128    	strb	w8, [x9]
100003104: 1400000b    	b	0x100003130 <_vo_ftoa+0x13c>
100003108: 385ee3a8    	ldurb	w8, [x29, #-18]
10000310c: 36000108    	tbz	w8, #0, 0x10000312c <_vo_ftoa+0x138>
100003110: 14000001    	b	0x100003114 <_vo_ftoa+0x120>
100003114: f94003e9    	ldr	x9, [sp]
100003118: 91000528    	add	x8, x9, #1
10000311c: f90003e8    	str	x8, [sp]
100003120: 52800568    	mov	w8, #43
100003124: 39000128    	strb	w8, [x9]
100003128: 14000001    	b	0x10000312c <_vo_ftoa+0x138>
10000312c: 14000001    	b	0x100003130 <_vo_ftoa+0x13c>
100003130: b9400fe0    	ldr	w0, [sp, #12]
100003134: f94003e1    	ldr	x1, [sp]
100003138: 52800142    	mov	w2, #10
10000313c: 52800003    	mov	w3, #0
100003140: 52800404    	mov	w4, #32
100003144: 97ffff40    	bl	0x100002e44 <_vo_itoa>
100003148: f90003e0    	str	x0, [sp]
10000314c: 38def3a8    	ldursb	w8, [x29, #-17]
100003150: 71000108    	subs	w8, w8, #0
100003154: 1a9fc7e8    	cset	w8, le
100003158: 37000248    	tbnz	w8, #0, 0x1000031a0 <_vo_ftoa+0x1ac>
10000315c: 14000001    	b	0x100003160 <_vo_ftoa+0x16c>
100003160: f94003e8    	ldr	x8, [sp]
100003164: f1000508    	subs	x8, x8, #1
100003168: f90003e8    	str	x8, [sp]
10000316c: f94003e9    	ldr	x9, [sp]
100003170: 91000528    	add	x8, x9, #1
100003174: f90003e8    	str	x8, [sp]
100003178: 528005c8    	mov	w8, #46
10000317c: 39000128    	strb	w8, [x9]
100003180: b9400be0    	ldr	w0, [sp, #8]
100003184: f94003e1    	ldr	x1, [sp]
100003188: 38def3a3    	ldursb	w3, [x29, #-17]
10000318c: 52800142    	mov	w2, #10
100003190: 52800604    	mov	w4, #48
100003194: 97ffff2c    	bl	0x100002e44 <_vo_itoa>
100003198: f90003e0    	str	x0, [sp]
10000319c: 14000001    	b	0x1000031a0 <_vo_ftoa+0x1ac>
1000031a0: f94003e0    	ldr	x0, [sp]
1000031a4: a9437bfd    	ldp	x29, x30, [sp, #48]
1000031a8: 910103ff    	add	sp, sp, #64
1000031ac: d65f03c0    	ret

00000001000031b0 <_vo_strchr>:
1000031b0: d10083ff    	sub	sp, sp, #32
1000031b4: f9000be0    	str	x0, [sp, #16]
1000031b8: b9000fe1    	str	w1, [sp, #12]
1000031bc: 14000001    	b	0x1000031c0 <_vo_strchr+0x10>
1000031c0: f9400be8    	ldr	x8, [sp, #16]
1000031c4: 39c00108    	ldrsb	w8, [x8]
1000031c8: b9400fe9    	ldr	w9, [sp, #12]
1000031cc: 6b090108    	subs	w8, w8, w9
1000031d0: 1a9f07e8    	cset	w8, ne
1000031d4: 370000a8    	tbnz	w8, #0, 0x1000031e8 <_vo_strchr+0x38>
1000031d8: 14000001    	b	0x1000031dc <_vo_strchr+0x2c>
1000031dc: f9400be8    	ldr	x8, [sp, #16]
1000031e0: f9000fe8    	str	x8, [sp, #24]
1000031e4: 1400000c    	b	0x100003214 <_vo_strchr+0x64>
1000031e8: 14000001    	b	0x1000031ec <_vo_strchr+0x3c>
1000031ec: f9400be8    	ldr	x8, [sp, #16]
1000031f0: 91000509    	add	x9, x8, #1
1000031f4: f9000be9    	str	x9, [sp, #16]
1000031f8: 39400108    	ldrb	w8, [x8]
1000031fc: 71000108    	subs	w8, w8, #0
100003200: 1a9f07e8    	cset	w8, ne
100003204: 3707fde8    	tbnz	w8, #0, 0x1000031c0 <_vo_strchr+0x10>
100003208: 14000001    	b	0x10000320c <_vo_strchr+0x5c>
10000320c: f9000fff    	str	xzr, [sp, #24]
100003210: 14000001    	b	0x100003214 <_vo_strchr+0x64>
100003214: f9400fe0    	ldr	x0, [sp, #24]
100003218: 910083ff    	add	sp, sp, #32
10000321c: d65f03c0    	ret

0000000100003220 <_vo_strrchr>:
100003220: d10103ff    	sub	sp, sp, #64
100003224: a9037bfd    	stp	x29, x30, [sp, #48]
100003228: 9100c3fd    	add	x29, sp, #48
10000322c: f81f03a0    	stur	x0, [x29, #-16]
100003230: b81ec3a1    	stur	w1, [x29, #-20]
100003234: b85ec3a8    	ldur	w8, [x29, #-20]
100003238: 12001d08    	and	w8, w8, #0xff
10000323c: b81ec3a8    	stur	w8, [x29, #-20]
100003240: b85ec3a8    	ldur	w8, [x29, #-20]
100003244: 71000108    	subs	w8, w8, #0
100003248: 1a9f07e8    	cset	w8, ne
10000324c: 370000e8    	tbnz	w8, #0, 0x100003268 <_vo_strrchr+0x48>
100003250: 14000001    	b	0x100003254 <_vo_strrchr+0x34>
100003254: f85f03a0    	ldur	x0, [x29, #-16]
100003258: 52800001    	mov	w1, #0
10000325c: 97ffffd5    	bl	0x1000031b0 <_vo_strchr>
100003260: f81f83a0    	stur	x0, [x29, #-8]
100003264: 14000015    	b	0x1000032b8 <_vo_strrchr+0x98>
100003268: f9000bff    	str	xzr, [sp, #16]
10000326c: 14000001    	b	0x100003270 <_vo_strrchr+0x50>
100003270: f85f03a0    	ldur	x0, [x29, #-16]
100003274: b85ec3a1    	ldur	w1, [x29, #-20]
100003278: 97ffffce    	bl	0x1000031b0 <_vo_strchr>
10000327c: aa0003e8    	mov	x8, x0
100003280: f90007e8    	str	x8, [sp, #8]
100003284: f1000008    	subs	x8, x0, #0
100003288: 1a9f17e8    	cset	w8, eq
10000328c: 37000108    	tbnz	w8, #0, 0x1000032ac <_vo_strrchr+0x8c>
100003290: 14000001    	b	0x100003294 <_vo_strrchr+0x74>
100003294: f94007e8    	ldr	x8, [sp, #8]
100003298: f9000be8    	str	x8, [sp, #16]
10000329c: f94007e8    	ldr	x8, [sp, #8]
1000032a0: 91000508    	add	x8, x8, #1
1000032a4: f81f03a8    	stur	x8, [x29, #-16]
1000032a8: 17fffff2    	b	0x100003270 <_vo_strrchr+0x50>
1000032ac: f9400be8    	ldr	x8, [sp, #16]
1000032b0: f81f83a8    	stur	x8, [x29, #-8]
1000032b4: 14000001    	b	0x1000032b8 <_vo_strrchr+0x98>
1000032b8: f85f83a0    	ldur	x0, [x29, #-8]
1000032bc: a9437bfd    	ldp	x29, x30, [sp, #48]
1000032c0: 910103ff    	add	sp, sp, #64
1000032c4: d65f03c0    	ret

00000001000032c8 <_vo_strcpy_realloc>:
1000032c8: d10083ff    	sub	sp, sp, #32
1000032cc: a9017bfd    	stp	x29, x30, [sp, #16]
1000032d0: 910043fd    	add	x29, sp, #16
1000032d4: f90007e0    	str	x0, [sp, #8]
1000032d8: f90003e1    	str	x1, [sp]
1000032dc: f94007e8    	ldr	x8, [sp, #8]
1000032e0: f9400100    	ldr	x0, [x8]
1000032e4: 97fffe1c    	bl	0x100002b54 <_vo_free>
1000032e8: f94003e0    	ldr	x0, [sp]
1000032ec: 9400000e    	bl	0x100003324 <_vo_strlen_ex>
1000032f0: aa0003e8    	mov	x8, x0
1000032f4: 92403d00    	and	x0, x8, #0xffff
1000032f8: 97fffdde    	bl	0x100002a70 <_vo_malloc>
1000032fc: f94007e8    	ldr	x8, [sp, #8]
100003300: f9000100    	str	x0, [x8]
100003304: f94007e8    	ldr	x8, [sp, #8]
100003308: f9400100    	ldr	x0, [x8]
10000330c: f94003e1    	ldr	x1, [sp]
100003310: 97fffe28    	bl	0x100002bb0 <_vo_strcpy>
100003314: f94007e0    	ldr	x0, [sp, #8]
100003318: a9417bfd    	ldp	x29, x30, [sp, #16]
10000331c: 910083ff    	add	sp, sp, #32
100003320: d65f03c0    	ret

0000000100003324 <_vo_strlen_ex>:
100003324: d10083ff    	sub	sp, sp, #32
100003328: a9017bfd    	stp	x29, x30, [sp, #16]
10000332c: 910043fd    	add	x29, sp, #16
100003330: f90007e0    	str	x0, [sp, #8]
100003334: f94007e0    	ldr	x0, [sp, #8]
100003338: 97fffe60    	bl	0x100002cb8 <_vo_strlen>
10000333c: 12003c08    	and	w8, w0, #0xffff
100003340: 11000508    	add	w8, w8, #1
100003344: 12003d00    	and	w0, w8, #0xffff
100003348: a9417bfd    	ldp	x29, x30, [sp, #16]
10000334c: 910083ff    	add	sp, sp, #32
100003350: d65f03c0    	ret

0000000100003354 <_vo_str_has_ext>:
100003354: d100c3ff    	sub	sp, sp, #48
100003358: a9027bfd    	stp	x29, x30, [sp, #32]
10000335c: 910083fd    	add	x29, sp, #32
100003360: f81f83a0    	stur	x0, [x29, #-8]
100003364: f9000be1    	str	x1, [sp, #16]
100003368: 39003fff    	strb	wzr, [sp, #15]
10000336c: f85f83a0    	ldur	x0, [x29, #-8]
100003370: 97fffe52    	bl	0x100002cb8 <_vo_strlen>
100003374: 39003be0    	strb	w0, [sp, #14]
100003378: f9400be0    	ldr	x0, [sp, #16]
10000337c: 97fffe4f    	bl	0x100002cb8 <_vo_strlen>
100003380: 390037e0    	strb	w0, [sp, #13]
100003384: 39403be8    	ldrb	w8, [sp, #14]
100003388: 394037e9    	ldrb	w9, [sp, #13]
10000338c: 6b090108    	subs	w8, w8, w9
100003390: 1a9fc7e8    	cset	w8, le
100003394: 37000368    	tbnz	w8, #0, 0x100003400 <_vo_str_has_ext+0xac>
100003398: 14000001    	b	0x10000339c <_vo_str_has_ext+0x48>
10000339c: f85f83a8    	ldur	x8, [x29, #-8]
1000033a0: 39403be9    	ldrb	w9, [sp, #14]
1000033a4: 394037ea    	ldrb	w10, [sp, #13]
1000033a8: 6b0a0129    	subs	w9, w9, w10
1000033ac: 71000529    	subs	w9, w9, #1
1000033b0: 38e9c908    	ldrsb	w8, [x8, w9, sxtw]
1000033b4: 7100b908    	subs	w8, w8, #46
1000033b8: 1a9f07e8    	cset	w8, ne
1000033bc: 37000208    	tbnz	w8, #0, 0x1000033fc <_vo_str_has_ext+0xa8>
1000033c0: 14000001    	b	0x1000033c4 <_vo_str_has_ext+0x70>
1000033c4: f85f83a8    	ldur	x8, [x29, #-8]
1000033c8: 39403be9    	ldrb	w9, [sp, #14]
1000033cc: 394037ea    	ldrb	w10, [sp, #13]
1000033d0: 6b0a0129    	subs	w9, w9, w10
1000033d4: 8b29c100    	add	x0, x8, w9, sxtw
1000033d8: f9400be1    	ldr	x1, [sp, #16]
1000033dc: 9400000d    	bl	0x100003410 <_vo_strcmp>
1000033e0: 71000008    	subs	w8, w0, #0
1000033e4: 1a9f07e8    	cset	w8, ne
1000033e8: 370000a8    	tbnz	w8, #0, 0x1000033fc <_vo_str_has_ext+0xa8>
1000033ec: 14000001    	b	0x1000033f0 <_vo_str_has_ext+0x9c>
1000033f0: 52800028    	mov	w8, #1
1000033f4: 39003fe8    	strb	w8, [sp, #15]
1000033f8: 14000001    	b	0x1000033fc <_vo_str_has_ext+0xa8>
1000033fc: 14000001    	b	0x100003400 <_vo_str_has_ext+0xac>
100003400: 39403fe0    	ldrb	w0, [sp, #15]
100003404: a9427bfd    	ldp	x29, x30, [sp, #32]
100003408: 9100c3ff    	add	sp, sp, #48
10000340c: d65f03c0    	ret

0000000100003410 <_vo_strcmp>:
100003410: d100c3ff    	sub	sp, sp, #48
100003414: f90013e0    	str	x0, [sp, #32]
100003418: f9000fe1    	str	x1, [sp, #24]
10000341c: f94013e8    	ldr	x8, [sp, #32]
100003420: f9000be8    	str	x8, [sp, #16]
100003424: f9400fe8    	ldr	x8, [sp, #24]
100003428: f90007e8    	str	x8, [sp, #8]
10000342c: 14000001    	b	0x100003430 <_vo_strcmp+0x20>
100003430: f9400be8    	ldr	x8, [sp, #16]
100003434: 91000509    	add	x9, x8, #1
100003438: f9000be9    	str	x9, [sp, #16]
10000343c: 39400108    	ldrb	w8, [x8]
100003440: 39001fe8    	strb	w8, [sp, #7]
100003444: f94007e8    	ldr	x8, [sp, #8]
100003448: 91000509    	add	x9, x8, #1
10000344c: f90007e9    	str	x9, [sp, #8]
100003450: 39400108    	ldrb	w8, [x8]
100003454: 39001be8    	strb	w8, [sp, #6]
100003458: 39401fe8    	ldrb	w8, [sp, #7]
10000345c: 71000108    	subs	w8, w8, #0
100003460: 1a9f07e8    	cset	w8, ne
100003464: 370000e8    	tbnz	w8, #0, 0x100003480 <_vo_strcmp+0x70>
100003468: 14000001    	b	0x10000346c <_vo_strcmp+0x5c>
10000346c: 39401fe8    	ldrb	w8, [sp, #7]
100003470: 39401be9    	ldrb	w9, [sp, #6]
100003474: 6b090108    	subs	w8, w8, w9
100003478: b9002fe8    	str	w8, [sp, #44]
10000347c: 1400000d    	b	0x1000034b0 <_vo_strcmp+0xa0>
100003480: 14000001    	b	0x100003484 <_vo_strcmp+0x74>
100003484: 39401fe8    	ldrb	w8, [sp, #7]
100003488: 39401be9    	ldrb	w9, [sp, #6]
10000348c: 6b090108    	subs	w8, w8, w9
100003490: 1a9f17e8    	cset	w8, eq
100003494: 3707fce8    	tbnz	w8, #0, 0x100003430 <_vo_strcmp+0x20>
100003498: 14000001    	b	0x10000349c <_vo_strcmp+0x8c>
10000349c: 39401fe8    	ldrb	w8, [sp, #7]
1000034a0: 39401be9    	ldrb	w9, [sp, #6]
1000034a4: 6b090108    	subs	w8, w8, w9
1000034a8: b9002fe8    	str	w8, [sp, #44]
1000034ac: 14000001    	b	0x1000034b0 <_vo_strcmp+0xa0>
1000034b0: b9402fe0    	ldr	w0, [sp, #44]
1000034b4: 9100c3ff    	add	sp, sp, #48
1000034b8: d65f03c0    	ret

00000001000034bc <_vo_strdup_num>:
1000034bc: d100c3ff    	sub	sp, sp, #48
1000034c0: a9027bfd    	stp	x29, x30, [sp, #32]
1000034c4: 910083fd    	add	x29, sp, #32
1000034c8: f81f83a0    	stur	x0, [x29, #-8]
1000034cc: 381f73a1    	sturb	w1, [x29, #-9]
1000034d0: 385f73a8    	ldurb	w8, [x29, #-9]
1000034d4: 11000509    	add	w9, w8, #1
1000034d8: aa0903e8    	mov	x8, x9
1000034dc: 93407d00    	sxtw	x0, w8
1000034e0: 97fffd64    	bl	0x100002a70 <_vo_malloc>
1000034e4: f90003e0    	str	x0, [sp]
1000034e8: f94003e8    	ldr	x8, [sp]
1000034ec: f90007e8    	str	x8, [sp, #8]
1000034f0: 14000001    	b	0x1000034f4 <_vo_strdup_num+0x38>
1000034f4: 385f73a8    	ldurb	w8, [x29, #-9]
1000034f8: 12800009    	mov	w9, #-1
1000034fc: 0b280129    	add	w9, w9, w8, uxtb
100003500: 381f73a9    	sturb	w9, [x29, #-9]
100003504: 71000108    	subs	w8, w8, #0
100003508: 1a9f17e8    	cset	w8, eq
10000350c: 37000168    	tbnz	w8, #0, 0x100003538 <_vo_strdup_num+0x7c>
100003510: 14000001    	b	0x100003514 <_vo_strdup_num+0x58>
100003514: f85f83a8    	ldur	x8, [x29, #-8]
100003518: 91000509    	add	x9, x8, #1
10000351c: f81f83a9    	stur	x9, [x29, #-8]
100003520: 39400108    	ldrb	w8, [x8]
100003524: f94007e9    	ldr	x9, [sp, #8]
100003528: 9100052a    	add	x10, x9, #1
10000352c: f90007ea    	str	x10, [sp, #8]
100003530: 39000128    	strb	w8, [x9]
100003534: 17fffff0    	b	0x1000034f4 <_vo_strdup_num+0x38>
100003538: f94003e0    	ldr	x0, [sp]
10000353c: a9427bfd    	ldp	x29, x30, [sp, #32]
100003540: 9100c3ff    	add	sp, sp, #48
100003544: d65f03c0    	ret

0000000100003548 <_vo_strdup>:
100003548: d10083ff    	sub	sp, sp, #32
10000354c: a9017bfd    	stp	x29, x30, [sp, #16]
100003550: 910043fd    	add	x29, sp, #16
100003554: f90007e0    	str	x0, [sp, #8]
100003558: f94007e8    	ldr	x8, [sp, #8]
10000355c: f90003e8    	str	x8, [sp]
100003560: f94007e0    	ldr	x0, [sp, #8]
100003564: 97fffdd5    	bl	0x100002cb8 <_vo_strlen>
100003568: aa0003e8    	mov	x8, x0
10000356c: f94003e0    	ldr	x0, [sp]
100003570: 12001d01    	and	w1, w8, #0xff
100003574: 97ffffd2    	bl	0x1000034bc <_vo_strdup_num>
100003578: a9417bfd    	ldp	x29, x30, [sp, #16]
10000357c: 910083ff    	add	sp, sp, #32
100003580: d65f03c0    	ret

0000000100003584 <_vo_strcatnew>:
100003584: d10103ff    	sub	sp, sp, #64
100003588: a9037bfd    	stp	x29, x30, [sp, #48]
10000358c: 9100c3fd    	add	x29, sp, #48
100003590: f81f03a0    	stur	x0, [x29, #-16]
100003594: f9000fe1    	str	x1, [sp, #24]
100003598: f9400fe8    	ldr	x8, [sp, #24]
10000359c: f1000108    	subs	x8, x8, #0
1000035a0: 1a9f07e8    	cset	w8, ne
1000035a4: 370000c8    	tbnz	w8, #0, 0x1000035bc <_vo_strcatnew+0x38>
1000035a8: 14000001    	b	0x1000035ac <_vo_strcatnew+0x28>
1000035ac: f85f03a0    	ldur	x0, [x29, #-16]
1000035b0: 97ffffe6    	bl	0x100003548 <_vo_strdup>
1000035b4: f81f83a0    	stur	x0, [x29, #-8]
1000035b8: 1400001c    	b	0x100003628 <_vo_strcatnew+0xa4>
1000035bc: f85f03a0    	ldur	x0, [x29, #-16]
1000035c0: 97fffdbe    	bl	0x100002cb8 <_vo_strlen>
1000035c4: 12003c08    	and	w8, w0, #0xffff
1000035c8: b90017e8    	str	w8, [sp, #20]
1000035cc: f9400fe0    	ldr	x0, [sp, #24]
1000035d0: 97fffdba    	bl	0x100002cb8 <_vo_strlen>
1000035d4: 12003c08    	and	w8, w0, #0xffff
1000035d8: b90013e8    	str	w8, [sp, #16]
1000035dc: b94017e8    	ldr	w8, [sp, #20]
1000035e0: b94013e9    	ldr	w9, [sp, #16]
1000035e4: 0b090108    	add	w8, w8, w9
1000035e8: 11000509    	add	w9, w8, #1
1000035ec: aa0903e8    	mov	x8, x9
1000035f0: 93407d00    	sxtw	x0, w8
1000035f4: 97fffd1f    	bl	0x100002a70 <_vo_malloc>
1000035f8: f90007e0    	str	x0, [sp, #8]
1000035fc: f94007e0    	ldr	x0, [sp, #8]
100003600: f85f03a1    	ldur	x1, [x29, #-16]
100003604: 97fffd6b    	bl	0x100002bb0 <_vo_strcpy>
100003608: f94007e8    	ldr	x8, [sp, #8]
10000360c: b98017e9    	ldrsw	x9, [sp, #20]
100003610: 8b090100    	add	x0, x8, x9
100003614: f9400fe1    	ldr	x1, [sp, #24]
100003618: 97fffd66    	bl	0x100002bb0 <_vo_strcpy>
10000361c: f94007e8    	ldr	x8, [sp, #8]
100003620: f81f83a8    	stur	x8, [x29, #-8]
100003624: 14000001    	b	0x100003628 <_vo_strcatnew+0xa4>
100003628: f85f83a0    	ldur	x0, [x29, #-8]
10000362c: a9437bfd    	ldp	x29, x30, [sp, #48]
100003630: 910103ff    	add	sp, sp, #64
100003634: d65f03c0    	ret

0000000100003638 <_vo_fp_get_path>:
100003638: d100c3ff    	sub	sp, sp, #48
10000363c: a9027bfd    	stp	x29, x30, [sp, #32]
100003640: 910083fd    	add	x29, sp, #32
100003644: f9000be0    	str	x0, [sp, #16]
100003648: f9400be0    	ldr	x0, [sp, #16]
10000364c: 97fffd9b    	bl	0x100002cb8 <_vo_strlen>
100003650: 12003c08    	and	w8, w0, #0xffff
100003654: b9000fe8    	str	w8, [sp, #12]
100003658: 14000001    	b	0x10000365c <_vo_fp_get_path+0x24>
10000365c: b9400fe8    	ldr	w8, [sp, #12]
100003660: 71000509    	subs	w9, w8, #1
100003664: b9000fe9    	str	w9, [sp, #12]
100003668: 71000108    	subs	w8, w8, #0
10000366c: 1a9fc7e8    	cset	w8, le
100003670: 37000208    	tbnz	w8, #0, 0x1000036b0 <_vo_fp_get_path+0x78>
100003674: 14000001    	b	0x100003678 <_vo_fp_get_path+0x40>
100003678: f9400be8    	ldr	x8, [sp, #16]
10000367c: b9800fe9    	ldrsw	x9, [sp, #12]
100003680: 38e96908    	ldrsb	w8, [x8, x9]
100003684: 7100bd08    	subs	w8, w8, #47
100003688: 1a9f07e8    	cset	w8, ne
10000368c: 37000108    	tbnz	w8, #0, 0x1000036ac <_vo_fp_get_path+0x74>
100003690: 14000001    	b	0x100003694 <_vo_fp_get_path+0x5c>
100003694: f9400be0    	ldr	x0, [sp, #16]
100003698: b9400fe8    	ldr	w8, [sp, #12]
10000369c: 12001d01    	and	w1, w8, #0xff
1000036a0: 97ffff87    	bl	0x1000034bc <_vo_strdup_num>
1000036a4: f81f83a0    	stur	x0, [x29, #-8]
1000036a8: 14000004    	b	0x1000036b8 <_vo_fp_get_path+0x80>
1000036ac: 17ffffec    	b	0x10000365c <_vo_fp_get_path+0x24>
1000036b0: f81f83bf    	stur	xzr, [x29, #-8]
1000036b4: 14000001    	b	0x1000036b8 <_vo_fp_get_path+0x80>
1000036b8: f85f83a0    	ldur	x0, [x29, #-8]
1000036bc: a9427bfd    	ldp	x29, x30, [sp, #32]
1000036c0: 9100c3ff    	add	sp, sp, #48
1000036c4: d65f03c0    	ret

00000001000036c8 <_vo_fp_get_filename>:
1000036c8: d100c3ff    	sub	sp, sp, #48
1000036cc: a9027bfd    	stp	x29, x30, [sp, #32]
1000036d0: 910083fd    	add	x29, sp, #32
1000036d4: f9000be0    	str	x0, [sp, #16]
1000036d8: f9400be0    	ldr	x0, [sp, #16]
1000036dc: 97fffd77    	bl	0x100002cb8 <_vo_strlen>
1000036e0: 12003c08    	and	w8, w0, #0xffff
1000036e4: b9000fe8    	str	w8, [sp, #12]
1000036e8: b9400fe8    	ldr	w8, [sp, #12]
1000036ec: b9000be8    	str	w8, [sp, #8]
1000036f0: 14000001    	b	0x1000036f4 <_vo_fp_get_filename+0x2c>
1000036f4: b9400be8    	ldr	w8, [sp, #8]
1000036f8: 71000509    	subs	w9, w8, #1
1000036fc: b9000be9    	str	w9, [sp, #8]
100003700: 71000108    	subs	w8, w8, #0
100003704: 1a9fc7e8    	cset	w8, le
100003708: 370003c8    	tbnz	w8, #0, 0x100003780 <_vo_fp_get_filename+0xb8>
10000370c: 14000001    	b	0x100003710 <_vo_fp_get_filename+0x48>
100003710: f9400be8    	ldr	x8, [sp, #16]
100003714: b9800be9    	ldrsw	x9, [sp, #8]
100003718: 38e96908    	ldrsb	w8, [x8, x9]
10000371c: 7100bd08    	subs	w8, w8, #47
100003720: 1a9f07e8    	cset	w8, ne
100003724: 370002c8    	tbnz	w8, #0, 0x10000377c <_vo_fp_get_filename+0xb4>
100003728: 14000001    	b	0x10000372c <_vo_fp_get_filename+0x64>
10000372c: b9400fe8    	ldr	w8, [sp, #12]
100003730: b9400be9    	ldr	w9, [sp, #8]
100003734: 6b090108    	subs	w8, w8, w9
100003738: 71000108    	subs	w8, w8, #0
10000373c: 1a9fc7e8    	cset	w8, le
100003740: 370001c8    	tbnz	w8, #0, 0x100003778 <_vo_fp_get_filename+0xb0>
100003744: 14000001    	b	0x100003748 <_vo_fp_get_filename+0x80>
100003748: f9400be8    	ldr	x8, [sp, #16]
10000374c: b9800be9    	ldrsw	x9, [sp, #8]
100003750: 8b090108    	add	x8, x8, x9
100003754: 91000500    	add	x0, x8, #1
100003758: b9400fe8    	ldr	w8, [sp, #12]
10000375c: b9400be9    	ldr	w9, [sp, #8]
100003760: 11000529    	add	w9, w9, #1
100003764: 6b090108    	subs	w8, w8, w9
100003768: 12001d01    	and	w1, w8, #0xff
10000376c: 97ffff54    	bl	0x1000034bc <_vo_strdup_num>
100003770: f81f83a0    	stur	x0, [x29, #-8]
100003774: 14000007    	b	0x100003790 <_vo_fp_get_filename+0xc8>
100003778: 14000002    	b	0x100003780 <_vo_fp_get_filename+0xb8>
10000377c: 17ffffde    	b	0x1000036f4 <_vo_fp_get_filename+0x2c>
100003780: f9400be0    	ldr	x0, [sp, #16]
100003784: 97ffff71    	bl	0x100003548 <_vo_strdup>
100003788: f81f83a0    	stur	x0, [x29, #-8]
10000378c: 14000001    	b	0x100003790 <_vo_fp_get_filename+0xc8>
100003790: f85f83a0    	ldur	x0, [x29, #-8]
100003794: a9427bfd    	ldp	x29, x30, [sp, #32]
100003798: 9100c3ff    	add	sp, sp, #48
10000379c: d65f03c0    	ret

00000001000037a0 <_vo_str_add_ext>:
1000037a0: d10103ff    	sub	sp, sp, #64
1000037a4: a9037bfd    	stp	x29, x30, [sp, #48]
1000037a8: 9100c3fd    	add	x29, sp, #48
1000037ac: f81f03a0    	stur	x0, [x29, #-16]
1000037b0: f9000fe1    	str	x1, [sp, #24]
1000037b4: f9400fe8    	ldr	x8, [sp, #24]
1000037b8: f1000108    	subs	x8, x8, #0
1000037bc: 1a9f07e8    	cset	w8, ne
1000037c0: 370000c8    	tbnz	w8, #0, 0x1000037d8 <_vo_str_add_ext+0x38>
1000037c4: 14000001    	b	0x1000037c8 <_vo_str_add_ext+0x28>
1000037c8: f85f03a0    	ldur	x0, [x29, #-16]
1000037cc: 97ffff5f    	bl	0x100003548 <_vo_strdup>
1000037d0: f81f83a0    	stur	x0, [x29, #-8]
1000037d4: 14000039    	b	0x1000038b8 <_vo_str_add_ext+0x118>
1000037d8: f85f03a0    	ldur	x0, [x29, #-16]
1000037dc: 97fffd37    	bl	0x100002cb8 <_vo_strlen>
1000037e0: 39005fe0    	strb	w0, [sp, #23]
1000037e4: f9400fe0    	ldr	x0, [sp, #24]
1000037e8: 97fffd34    	bl	0x100002cb8 <_vo_strlen>
1000037ec: 39005be0    	strb	w0, [sp, #22]
1000037f0: f85f03a0    	ldur	x0, [x29, #-16]
1000037f4: f9400fe1    	ldr	x1, [sp, #24]
1000037f8: 97fffed7    	bl	0x100003354 <_vo_str_has_ext>
1000037fc: 390053e0    	strb	w0, [sp, #20]
100003800: 39405fe8    	ldrb	w8, [sp, #23]
100003804: 11000508    	add	w8, w8, #1
100003808: 390057e8    	strb	w8, [sp, #21]
10000380c: 394053e8    	ldrb	w8, [sp, #20]
100003810: 71000108    	subs	w8, w8, #0
100003814: 1a9f07e8    	cset	w8, ne
100003818: 37000108    	tbnz	w8, #0, 0x100003838 <_vo_str_add_ext+0x98>
10000381c: 14000001    	b	0x100003820 <_vo_str_add_ext+0x80>
100003820: 39405be8    	ldrb	w8, [sp, #22]
100003824: 11000509    	add	w9, w8, #1
100003828: 394057e8    	ldrb	w8, [sp, #21]
10000382c: 0b090108    	add	w8, w8, w9
100003830: 390057e8    	strb	w8, [sp, #21]
100003834: 14000001    	b	0x100003838 <_vo_str_add_ext+0x98>
100003838: 394057e8    	ldrb	w8, [sp, #21]
10000383c: aa0803e0    	mov	x0, x8
100003840: 97fffc8c    	bl	0x100002a70 <_vo_malloc>
100003844: f90007e0    	str	x0, [sp, #8]
100003848: f94007e0    	ldr	x0, [sp, #8]
10000384c: f85f03a1    	ldur	x1, [x29, #-16]
100003850: 97fffcd8    	bl	0x100002bb0 <_vo_strcpy>
100003854: 394053e8    	ldrb	w8, [sp, #20]
100003858: 71000108    	subs	w8, w8, #0
10000385c: 1a9f07e8    	cset	w8, ne
100003860: 37000268    	tbnz	w8, #0, 0x1000038ac <_vo_str_add_ext+0x10c>
100003864: 14000001    	b	0x100003868 <_vo_str_add_ext+0xc8>
100003868: 39405be8    	ldrb	w8, [sp, #22]
10000386c: 71000108    	subs	w8, w8, #0
100003870: 1a9f17e8    	cset	w8, eq
100003874: 370001c8    	tbnz	w8, #0, 0x1000038ac <_vo_str_add_ext+0x10c>
100003878: 14000001    	b	0x10000387c <_vo_str_add_ext+0xdc>
10000387c: f94007e8    	ldr	x8, [sp, #8]
100003880: 39405fe9    	ldrb	w9, [sp, #23]
100003884: 8b090109    	add	x9, x8, x9
100003888: 528005c8    	mov	w8, #46
10000388c: 39000128    	strb	w8, [x9]
100003890: f94007e8    	ldr	x8, [sp, #8]
100003894: 39405fe9    	ldrb	w9, [sp, #23]
100003898: 8b29c108    	add	x8, x8, w9, sxtw
10000389c: 91000500    	add	x0, x8, #1
1000038a0: f9400fe1    	ldr	x1, [sp, #24]
1000038a4: 97fffcc3    	bl	0x100002bb0 <_vo_strcpy>
1000038a8: 14000001    	b	0x1000038ac <_vo_str_add_ext+0x10c>
1000038ac: f94007e8    	ldr	x8, [sp, #8]
1000038b0: f81f83a8    	stur	x8, [x29, #-8]
1000038b4: 14000001    	b	0x1000038b8 <_vo_str_add_ext+0x118>
1000038b8: f85f83a0    	ldur	x0, [x29, #-8]
1000038bc: a9437bfd    	ldp	x29, x30, [sp, #48]
1000038c0: 910103ff    	add	sp, sp, #64
1000038c4: d65f03c0    	ret

00000001000038c8 <_vo_str_del_ext>:
1000038c8: d100c3ff    	sub	sp, sp, #48
1000038cc: a9027bfd    	stp	x29, x30, [sp, #32]
1000038d0: 910083fd    	add	x29, sp, #32
1000038d4: f81f83a0    	stur	x0, [x29, #-8]
1000038d8: f9000be1    	str	x1, [sp, #16]
1000038dc: f85f83a0    	ldur	x0, [x29, #-8]
1000038e0: 97fffcf6    	bl	0x100002cb8 <_vo_strlen>
1000038e4: 39003fe0    	strb	w0, [sp, #15]
1000038e8: f9400be0    	ldr	x0, [sp, #16]
1000038ec: 97fffcf3    	bl	0x100002cb8 <_vo_strlen>
1000038f0: 39003be0    	strb	w0, [sp, #14]
1000038f4: f85f83a0    	ldur	x0, [x29, #-8]
1000038f8: f9400be1    	ldr	x1, [sp, #16]
1000038fc: 97fffe96    	bl	0x100003354 <_vo_str_has_ext>
100003900: 390037e0    	strb	w0, [sp, #13]
100003904: 394037e8    	ldrb	w8, [sp, #13]
100003908: 71000108    	subs	w8, w8, #0
10000390c: 1a9f07e8    	cset	w8, ne
100003910: 370000e8    	tbnz	w8, #0, 0x10000392c <_vo_str_del_ext+0x64>
100003914: 14000001    	b	0x100003918 <_vo_str_del_ext+0x50>
100003918: f85f83a0    	ldur	x0, [x29, #-8]
10000391c: 39403fe1    	ldrb	w1, [sp, #15]
100003920: 97fffee7    	bl	0x1000034bc <_vo_strdup_num>
100003924: f90003e0    	str	x0, [sp]
100003928: 1400000a    	b	0x100003950 <_vo_str_del_ext+0x88>
10000392c: f85f83a0    	ldur	x0, [x29, #-8]
100003930: 39403fe8    	ldrb	w8, [sp, #15]
100003934: 39403be9    	ldrb	w9, [sp, #14]
100003938: 6b090108    	subs	w8, w8, w9
10000393c: 71000508    	subs	w8, w8, #1
100003940: 12001d01    	and	w1, w8, #0xff
100003944: 97fffede    	bl	0x1000034bc <_vo_strdup_num>
100003948: f90003e0    	str	x0, [sp]
10000394c: 14000001    	b	0x100003950 <_vo_str_del_ext+0x88>
100003950: f94003e0    	ldr	x0, [sp]
100003954: a9427bfd    	ldp	x29, x30, [sp, #32]
100003958: 9100c3ff    	add	sp, sp, #48
10000395c: d65f03c0    	ret

0000000100003960 <_vo_sputs>:
100003960: d10083ff    	sub	sp, sp, #32
100003964: a9017bfd    	stp	x29, x30, [sp, #16]
100003968: 910043fd    	add	x29, sp, #16
10000396c: f90007e0    	str	x0, [sp, #8]
100003970: f90003e1    	str	x1, [sp]
100003974: f94003e8    	ldr	x8, [sp]
100003978: f1000108    	subs	x8, x8, #0
10000397c: 1a9f07e8    	cset	w8, ne
100003980: 370000c8    	tbnz	w8, #0, 0x100003998 <_vo_sputs+0x38>
100003984: 14000001    	b	0x100003988 <_vo_sputs+0x28>
100003988: b0000028    	adrp	x8, 0x100008000 <_vo_sputs+0x3c>
10000398c: f9400108    	ldr	x8, [x8]
100003990: f90003e8    	str	x8, [sp]
100003994: 14000001    	b	0x100003998 <_vo_sputs+0x38>
100003998: f94007e0    	ldr	x0, [sp, #8]
10000399c: f94003e1    	ldr	x1, [sp]
1000039a0: 97fffc84    	bl	0x100002bb0 <_vo_strcpy>
1000039a4: f90007e0    	str	x0, [sp, #8]
1000039a8: f94007e8    	ldr	x8, [sp, #8]
1000039ac: f1000508    	subs	x8, x8, #1
1000039b0: f90007e8    	str	x8, [sp, #8]
1000039b4: f94007e0    	ldr	x0, [sp, #8]
1000039b8: a9417bfd    	ldp	x29, x30, [sp, #16]
1000039bc: 910083ff    	add	sp, sp, #32
1000039c0: d65f03c0    	ret

00000001000039c4 <_vo_sputc>:
1000039c4: d10043ff    	sub	sp, sp, #16
1000039c8: f90007e0    	str	x0, [sp, #8]
1000039cc: 39001fe1    	strb	w1, [sp, #7]
1000039d0: 39401fe8    	ldrb	w8, [sp, #7]
1000039d4: f94007e9    	ldr	x9, [sp, #8]
1000039d8: 9100052a    	add	x10, x9, #1
1000039dc: f90007ea    	str	x10, [sp, #8]
1000039e0: 39000128    	strb	w8, [x9]
1000039e4: f94007e0    	ldr	x0, [sp, #8]
1000039e8: 910043ff    	add	sp, sp, #16
1000039ec: d65f03c0    	ret

00000001000039f0 <_vo_atoi>:
1000039f0: d100c3ff    	sub	sp, sp, #48
1000039f4: f90017e0    	str	x0, [sp, #40]
1000039f8: b90027ff    	str	wzr, [sp, #36]
1000039fc: b90023ff    	str	wzr, [sp, #32]
100003a00: b9001fff    	str	wzr, [sp, #28]
100003a04: f94017e8    	ldr	x8, [sp, #40]
100003a08: f9000be8    	str	x8, [sp, #16]
100003a0c: f9400be8    	ldr	x8, [sp, #16]
100003a10: 91000509    	add	x9, x8, #1
100003a14: f9000be9    	str	x9, [sp, #16]
100003a18: 39c00108    	ldrsb	w8, [x8]
100003a1c: b90027e8    	str	w8, [sp, #36]
100003a20: 14000001    	b	0x100003a24 <_vo_atoi+0x34>
100003a24: b94027e8    	ldr	w8, [sp, #36]
100003a28: 7100c108    	subs	w8, w8, #48
100003a2c: 1a9fa7e8    	cset	w8, lt
100003a30: 52800029    	mov	w9, #1
100003a34: b9000fe9    	str	w9, [sp, #12]
100003a38: 370000e8    	tbnz	w8, #0, 0x100003a54 <_vo_atoi+0x64>
100003a3c: 14000001    	b	0x100003a40 <_vo_atoi+0x50>
100003a40: b94027e8    	ldr	w8, [sp, #36]
100003a44: 7100e508    	subs	w8, w8, #57
100003a48: 1a9fd7e8    	cset	w8, gt
100003a4c: b9000fe8    	str	w8, [sp, #12]
100003a50: 14000001    	b	0x100003a54 <_vo_atoi+0x64>
100003a54: b9400fe8    	ldr	w8, [sp, #12]
100003a58: 360002c8    	tbz	w8, #0, 0x100003ab0 <_vo_atoi+0xc0>
100003a5c: 14000001    	b	0x100003a60 <_vo_atoi+0x70>
100003a60: b94027e8    	ldr	w8, [sp, #36]
100003a64: 7100b508    	subs	w8, w8, #45
100003a68: 1a9f07e8    	cset	w8, ne
100003a6c: 37000148    	tbnz	w8, #0, 0x100003a94 <_vo_atoi+0xa4>
100003a70: 14000001    	b	0x100003a74 <_vo_atoi+0x84>
100003a74: 52800028    	mov	w8, #1
100003a78: b90023e8    	str	w8, [sp, #32]
100003a7c: f9400be8    	ldr	x8, [sp, #16]
100003a80: 91000509    	add	x9, x8, #1
100003a84: f9000be9    	str	x9, [sp, #16]
100003a88: 39c00108    	ldrsb	w8, [x8]
100003a8c: b90027e8    	str	w8, [sp, #36]
100003a90: 14000008    	b	0x100003ab0 <_vo_atoi+0xc0>
100003a94: 14000001    	b	0x100003a98 <_vo_atoi+0xa8>
100003a98: f9400be8    	ldr	x8, [sp, #16]
100003a9c: 91000509    	add	x9, x8, #1
100003aa0: f9000be9    	str	x9, [sp, #16]
100003aa4: 39c00108    	ldrsb	w8, [x8]
100003aa8: b90027e8    	str	w8, [sp, #36]
100003aac: 17ffffde    	b	0x100003a24 <_vo_atoi+0x34>
100003ab0: 14000001    	b	0x100003ab4 <_vo_atoi+0xc4>
100003ab4: b94027e8    	ldr	w8, [sp, #36]
100003ab8: 7100bd08    	subs	w8, w8, #47
100003abc: 1a9fc7e8    	cset	w8, le
100003ac0: 52800009    	mov	w9, #0
100003ac4: b9000be9    	str	w9, [sp, #8]
100003ac8: 370000e8    	tbnz	w8, #0, 0x100003ae4 <_vo_atoi+0xf4>
100003acc: 14000001    	b	0x100003ad0 <_vo_atoi+0xe0>
100003ad0: b94027e8    	ldr	w8, [sp, #36]
100003ad4: 7100e908    	subs	w8, w8, #58
100003ad8: 1a9fa7e8    	cset	w8, lt
100003adc: b9000be8    	str	w8, [sp, #8]
100003ae0: 14000001    	b	0x100003ae4 <_vo_atoi+0xf4>
100003ae4: b9400be8    	ldr	w8, [sp, #8]
100003ae8: 36000228    	tbz	w8, #0, 0x100003b2c <_vo_atoi+0x13c>
100003aec: 14000001    	b	0x100003af0 <_vo_atoi+0x100>
100003af0: b9401fe9    	ldr	w9, [sp, #28]
100003af4: b9401fe8    	ldr	w8, [sp, #28]
100003af8: 531d7108    	lsl	w8, w8, #3
100003afc: 0b090508    	add	w8, w8, w9, lsl #1
100003b00: b94027e9    	ldr	w9, [sp, #36]
100003b04: 0b090108    	add	w8, w8, w9
100003b08: 7100c108    	subs	w8, w8, #48
100003b0c: b9001fe8    	str	w8, [sp, #28]
100003b10: 14000001    	b	0x100003b14 <_vo_atoi+0x124>
100003b14: f9400be8    	ldr	x8, [sp, #16]
100003b18: 91000509    	add	x9, x8, #1
100003b1c: f9000be9    	str	x9, [sp, #16]
100003b20: 39c00108    	ldrsb	w8, [x8]
100003b24: b90027e8    	str	w8, [sp, #36]
100003b28: 17ffffe3    	b	0x100003ab4 <_vo_atoi+0xc4>
100003b2c: b94023e8    	ldr	w8, [sp, #32]
100003b30: 71000108    	subs	w8, w8, #0
100003b34: 1a9f17e8    	cset	w8, eq
100003b38: 370000e8    	tbnz	w8, #0, 0x100003b54 <_vo_atoi+0x164>
100003b3c: 14000001    	b	0x100003b40 <_vo_atoi+0x150>
100003b40: b9401fe9    	ldr	w9, [sp, #28]
100003b44: 52800008    	mov	w8, #0
100003b48: 6b090108    	subs	w8, w8, w9
100003b4c: b90007e8    	str	w8, [sp, #4]
100003b50: 14000004    	b	0x100003b60 <_vo_atoi+0x170>
100003b54: b9401fe8    	ldr	w8, [sp, #28]
100003b58: b90007e8    	str	w8, [sp, #4]
100003b5c: 14000001    	b	0x100003b60 <_vo_atoi+0x170>
100003b60: b94007e0    	ldr	w0, [sp, #4]
100003b64: 9100c3ff    	add	sp, sp, #48
100003b68: d65f03c0    	ret

0000000100003b6c <_vo_atof>:
100003b6c: d10083ff    	sub	sp, sp, #32
100003b70: f9000fe0    	str	x0, [sp, #24]
100003b74: 14000001    	b	0x100003b78 <_vo_atof+0xc>
100003b78: f9400fe8    	ldr	x8, [sp, #24]
100003b7c: 39c00108    	ldrsb	w8, [x8]
100003b80: 71008108    	subs	w8, w8, #32
100003b84: 1a9f17e8    	cset	w8, eq
100003b88: 52800029    	mov	w9, #1
100003b8c: b9000be9    	str	w9, [sp, #8]
100003b90: 37000108    	tbnz	w8, #0, 0x100003bb0 <_vo_atof+0x44>
100003b94: 14000001    	b	0x100003b98 <_vo_atof+0x2c>
100003b98: f9400fe8    	ldr	x8, [sp, #24]
100003b9c: 39c00108    	ldrsb	w8, [x8]
100003ba0: 71002508    	subs	w8, w8, #9
100003ba4: 1a9f17e8    	cset	w8, eq
100003ba8: b9000be8    	str	w8, [sp, #8]
100003bac: 14000001    	b	0x100003bb0 <_vo_atof+0x44>
100003bb0: b9400be8    	ldr	w8, [sp, #8]
100003bb4: 360000c8    	tbz	w8, #0, 0x100003bcc <_vo_atof+0x60>
100003bb8: 14000001    	b	0x100003bbc <_vo_atof+0x50>
100003bbc: f9400fe8    	ldr	x8, [sp, #24]
100003bc0: 91000508    	add	x8, x8, #1
100003bc4: f9000fe8    	str	x8, [sp, #24]
100003bc8: 17ffffec    	b	0x100003b78 <_vo_atof+0xc>
100003bcc: 1e2e1000    	fmov	s0, #1.00000000
100003bd0: bd0017e0    	str	s0, [sp, #20]
100003bd4: f9400fe8    	ldr	x8, [sp, #24]
100003bd8: 39c00108    	ldrsb	w8, [x8]
100003bdc: 7100b508    	subs	w8, w8, #45
100003be0: 1a9f07e8    	cset	w8, ne
100003be4: 37000108    	tbnz	w8, #0, 0x100003c04 <_vo_atof+0x98>
100003be8: 14000001    	b	0x100003bec <_vo_atof+0x80>
100003bec: 1e3e1000    	fmov	s0, #-1.00000000
100003bf0: bd0017e0    	str	s0, [sp, #20]
100003bf4: f9400fe8    	ldr	x8, [sp, #24]
100003bf8: 91000508    	add	x8, x8, #1
100003bfc: f9000fe8    	str	x8, [sp, #24]
100003c00: 1400000c    	b	0x100003c30 <_vo_atof+0xc4>
100003c04: f9400fe8    	ldr	x8, [sp, #24]
100003c08: 39c00108    	ldrsb	w8, [x8]
100003c0c: 7100ad08    	subs	w8, w8, #43
100003c10: 1a9f07e8    	cset	w8, ne
100003c14: 370000c8    	tbnz	w8, #0, 0x100003c2c <_vo_atof+0xc0>
100003c18: 14000001    	b	0x100003c1c <_vo_atof+0xb0>
100003c1c: f9400fe8    	ldr	x8, [sp, #24]
100003c20: 91000508    	add	x8, x8, #1
100003c24: f9000fe8    	str	x8, [sp, #24]
100003c28: 14000001    	b	0x100003c2c <_vo_atof+0xc0>
100003c2c: 14000001    	b	0x100003c30 <_vo_atof+0xc4>
100003c30: 2f00e400    	movi	d0, #0000000000000000
100003c34: bd0013e0    	str	s0, [sp, #16]
100003c38: 14000001    	b	0x100003c3c <_vo_atof+0xd0>
100003c3c: f9400fe8    	ldr	x8, [sp, #24]
100003c40: 39c00108    	ldrsb	w8, [x8]
100003c44: 7100c108    	subs	w8, w8, #48
100003c48: 1a9fa7e8    	cset	w8, lt
100003c4c: 52800009    	mov	w9, #0
100003c50: b90007e9    	str	w9, [sp, #4]
100003c54: 37000108    	tbnz	w8, #0, 0x100003c74 <_vo_atof+0x108>
100003c58: 14000001    	b	0x100003c5c <_vo_atof+0xf0>
100003c5c: f9400fe8    	ldr	x8, [sp, #24]
100003c60: 39c00108    	ldrsb	w8, [x8]
100003c64: 7100e508    	subs	w8, w8, #57
100003c68: 1a9fc7e8    	cset	w8, le
100003c6c: b90007e8    	str	w8, [sp, #4]
100003c70: 14000001    	b	0x100003c74 <_vo_atof+0x108>
100003c74: b94007e8    	ldr	w8, [sp, #4]
100003c78: 36000228    	tbz	w8, #0, 0x100003cbc <_vo_atof+0x150>
100003c7c: 14000001    	b	0x100003c80 <_vo_atof+0x114>
100003c80: bd4013e0    	ldr	s0, [sp, #16]
100003c84: 1e22c000    	fcvt	d0, s0
100003c88: f9400fe8    	ldr	x8, [sp, #24]
100003c8c: 39c00108    	ldrsb	w8, [x8]
100003c90: 7100c108    	subs	w8, w8, #48
100003c94: 1e620102    	scvtf	d2, w8
100003c98: 1e649001    	fmov	d1, #10.00000000
100003c9c: 1f410800    	fmadd	d0, d0, d1, d2
100003ca0: 1e624000    	fcvt	s0, d0
100003ca4: bd0013e0    	str	s0, [sp, #16]
100003ca8: 14000001    	b	0x100003cac <_vo_atof+0x140>
100003cac: f9400fe8    	ldr	x8, [sp, #24]
100003cb0: 91000508    	add	x8, x8, #1
100003cb4: f9000fe8    	str	x8, [sp, #24]
100003cb8: 17ffffe1    	b	0x100003c3c <_vo_atof+0xd0>
100003cbc: f9400fe8    	ldr	x8, [sp, #24]
100003cc0: 39c00108    	ldrsb	w8, [x8]
100003cc4: 7100b908    	subs	w8, w8, #46
100003cc8: 1a9f07e8    	cset	w8, ne
100003ccc: 370005a8    	tbnz	w8, #0, 0x100003d80 <_vo_atof+0x214>
100003cd0: 14000001    	b	0x100003cd4 <_vo_atof+0x168>
100003cd4: 1e249000    	fmov	s0, #10.00000000
100003cd8: bd000fe0    	str	s0, [sp, #12]
100003cdc: f9400fe8    	ldr	x8, [sp, #24]
100003ce0: 91000508    	add	x8, x8, #1
100003ce4: f9000fe8    	str	x8, [sp, #24]
100003ce8: 14000001    	b	0x100003cec <_vo_atof+0x180>
100003cec: f9400fe8    	ldr	x8, [sp, #24]
100003cf0: 39c00108    	ldrsb	w8, [x8]
100003cf4: 7100c108    	subs	w8, w8, #48
100003cf8: 1a9fa7e8    	cset	w8, lt
100003cfc: 52800009    	mov	w9, #0
100003d00: b90003e9    	str	w9, [sp]
100003d04: 37000108    	tbnz	w8, #0, 0x100003d24 <_vo_atof+0x1b8>
100003d08: 14000001    	b	0x100003d0c <_vo_atof+0x1a0>
100003d0c: f9400fe8    	ldr	x8, [sp, #24]
100003d10: 39c00108    	ldrsb	w8, [x8]
100003d14: 7100e508    	subs	w8, w8, #57
100003d18: 1a9fc7e8    	cset	w8, le
100003d1c: b90003e8    	str	w8, [sp]
100003d20: 14000001    	b	0x100003d24 <_vo_atof+0x1b8>
100003d24: b94003e8    	ldr	w8, [sp]
100003d28: 360002a8    	tbz	w8, #0, 0x100003d7c <_vo_atof+0x210>
100003d2c: 14000001    	b	0x100003d30 <_vo_atof+0x1c4>
100003d30: f9400fe8    	ldr	x8, [sp, #24]
100003d34: 39c00108    	ldrsb	w8, [x8]
100003d38: 7100c108    	subs	w8, w8, #48
100003d3c: 1e220100    	scvtf	s0, w8
100003d40: bd400fe1    	ldr	s1, [sp, #12]
100003d44: 1e211801    	fdiv	s1, s0, s1
100003d48: bd4013e0    	ldr	s0, [sp, #16]
100003d4c: 1e212800    	fadd	s0, s0, s1
100003d50: bd0013e0    	str	s0, [sp, #16]
100003d54: bd400fe0    	ldr	s0, [sp, #12]
100003d58: 1e22c000    	fcvt	d0, s0
100003d5c: 1e649001    	fmov	d1, #10.00000000
100003d60: 1e610800    	fmul	d0, d0, d1
100003d64: 1e624000    	fcvt	s0, d0
100003d68: bd000fe0    	str	s0, [sp, #12]
100003d6c: f9400fe8    	ldr	x8, [sp, #24]
100003d70: 91000508    	add	x8, x8, #1
100003d74: f9000fe8    	str	x8, [sp, #24]
100003d78: 17ffffdd    	b	0x100003cec <_vo_atof+0x180>
100003d7c: 14000001    	b	0x100003d80 <_vo_atof+0x214>
100003d80: bd4017e0    	ldr	s0, [sp, #20]
100003d84: bd4013e1    	ldr	s1, [sp, #16]
100003d88: 1e210800    	fmul	s0, s0, s1
100003d8c: 910083ff    	add	sp, sp, #32
100003d90: d65f03c0    	ret

0000000100003d94 <_vo_time_get>:
100003d94: d100c3ff    	sub	sp, sp, #48
100003d98: a9027bfd    	stp	x29, x30, [sp, #32]
100003d9c: 910083fd    	add	x29, sp, #32
100003da0: 910023e0    	add	x0, sp, #8
100003da4: 52800021    	mov	w1, #1
100003da8: 9400003f    	bl	0x100003ea4 <_timespec_get+0x100003ea4>
100003dac: b90007e0    	str	w0, [sp, #4]
100003db0: b94007e8    	ldr	w8, [sp, #4]
100003db4: 71000108    	subs	w8, w8, #0
100003db8: 1a9f07e8    	cset	w8, ne
100003dbc: 37000108    	tbnz	w8, #0, 0x100003ddc <_vo_time_get+0x48>
100003dc0: 14000001    	b	0x100003dc4 <_vo_time_get+0x30>
100003dc4: 90000000    	adrp	x0, 0x100003000 <_vo_time_get+0x30>
100003dc8: 913c4400    	add	x0, x0, #3857
100003dcc: 94000033    	bl	0x100003e98 <_timespec_get+0x100003e98>
100003dd0: 92800008    	mov	x8, #-1
100003dd4: f81f83a8    	stur	x8, [x29, #-8]
100003dd8: 14000009    	b	0x100003dfc <_vo_time_get+0x68>
100003ddc: f94007e8    	ldr	x8, [sp, #8]
100003de0: d2994009    	mov	x9, #51712
100003de4: f2a77349    	movk	x9, #15258, lsl #16
100003de8: 9b097d08    	mul	x8, x8, x9
100003dec: f9400be9    	ldr	x9, [sp, #16]
100003df0: 8b090108    	add	x8, x8, x9
100003df4: f81f83a8    	stur	x8, [x29, #-8]
100003df8: 14000001    	b	0x100003dfc <_vo_time_get+0x68>
100003dfc: f85f83a0    	ldur	x0, [x29, #-8]
100003e00: a9427bfd    	ldp	x29, x30, [sp, #32]
100003e04: 9100c3ff    	add	sp, sp, #48
100003e08: d65f03c0    	ret

0000000100003e0c <_vo_time_get_us>:
100003e0c: d10083ff    	sub	sp, sp, #32
100003e10: a9017bfd    	stp	x29, x30, [sp, #16]
100003e14: 910043fd    	add	x29, sp, #16
100003e18: 97ffffdf    	bl	0x100003d94 <_vo_time_get>
100003e1c: f90003e0    	str	x0, [sp]
100003e20: f94003e8    	ldr	x8, [sp]
100003e24: d2807d09    	mov	x9, #1000
100003e28: 9ac90908    	udiv	x8, x8, x9
100003e2c: b81fc3a8    	stur	w8, [x29, #-4]
100003e30: b85fc3a0    	ldur	w0, [x29, #-4]
100003e34: a9417bfd    	ldp	x29, x30, [sp, #16]
100003e38: 910083ff    	add	sp, sp, #32
100003e3c: d65f03c0    	ret

0000000100003e40 <_vo_time_get_ms>:
100003e40: d10083ff    	sub	sp, sp, #32
100003e44: a9017bfd    	stp	x29, x30, [sp, #16]
100003e48: 910043fd    	add	x29, sp, #16
100003e4c: 97ffffd2    	bl	0x100003d94 <_vo_time_get>
100003e50: f90003e0    	str	x0, [sp]
100003e54: f94003e8    	ldr	x8, [sp]
100003e58: d2807d09    	mov	x9, #1000
100003e5c: 9ac90908    	udiv	x8, x8, x9
100003e60: b81fc3a8    	stur	w8, [x29, #-4]
100003e64: b85fc3a0    	ldur	w0, [x29, #-4]
100003e68: a9417bfd    	ldp	x29, x30, [sp, #16]
100003e6c: 910083ff    	add	sp, sp, #32
100003e70: d65f03c0    	ret

Disassembly of section __TEXT,__stubs:

0000000100003e74 <__stubs>:
100003e74: b0000010    	adrp	x16, 0x100004000 <__stubs+0x4>
100003e78: f9400210    	ldr	x16, [x16]
100003e7c: d61f0200    	br	x16
100003e80: b0000010    	adrp	x16, 0x100004000 <__stubs+0x10>
100003e84: f9400610    	ldr	x16, [x16, #8]
100003e88: d61f0200    	br	x16
100003e8c: b0000010    	adrp	x16, 0x100004000 <__stubs+0x1c>
100003e90: f9400a10    	ldr	x16, [x16, #16]
100003e94: d61f0200    	br	x16
100003e98: b0000010    	adrp	x16, 0x100004000 <__stubs+0x28>
100003e9c: f9400e10    	ldr	x16, [x16, #24]
100003ea0: d61f0200    	br	x16
100003ea4: b0000010    	adrp	x16, 0x100004000 <__stubs+0x34>
100003ea8: f9401210    	ldr	x16, [x16, #32]
100003eac: d61f0200    	br	x16

Disassembly of section __TEXT,__const:

0000000100003eb0 <__const>:
100003eb0: ff800000    	<unknown>
100003eb4: 41cdcd64    	<unknown>

Disassembly of section __TEXT,__cstring:

0000000100003eb8 <__cstring>:
100003eb8: 6c697542    	ldnp	d2, d29, [x10, #-368]
100003ebc: 676e6964    	<unknown>
100003ec0: 69727020    	ldpsw	x0, x28, [x1, #-112]
100003ec4: 6e20656d    	umax.16b	v13, v11, v0
100003ec8: 65626d75    	fnmls	z21.h, p3/m, z11.h, z2.h
100003ecc: 61632072    	<unknown>
100003ed0: 6c75636c    	ldnp	d12, d24, [x27, #-176]
100003ed4: 726f7461    	<unknown>
100003ed8: 5b1b000a    	<unknown>
100003edc: 32333b30    	orr	w16, w25, #0xfffe000
100003ee0: 2820496d    	stnp	w13, w18, [x11, #-256]
100003ee4: 66332e25    	<unknown>
100003ee8: 73252029    	<unknown>
100003eec: 6954203a    	ldpsw	x26, x8, [x1, #160]
100003ef0: 7320656d    	<unknown>
100003ef4: 746e6570    	<unknown>
100003ef8: 6c25203a    	stnp	d26, d8, [x1, #-432]
100003efc: 5b1b756c    	<unknown>
100003f00: 000a6d30    	<unknown>
100003f04: 6d697270    	ldp	d16, d28, [x19, #-368]
100003f08: 6e3c0065    	uaddl2.8h	v5, v3, v28
100003f0c: 3e6c6c75    	<unknown>
100003f10: 69614600    	ldpsw	x0, x17, [x16, #-248]
100003f14: 2064656c    	<unknown>
100003f18: 6f206f74    	<unknown>
100003f1c: 69617462    	ldpsw	x2, x29, [x3, #-248]
100003f20: 6974206e    	ldpsw	x14, x8, [x3, #-96]
100003f24: 7473656d    	<unknown>
100003f28: 2e706d61    	umin.4h	v1, v11, v16
100003f2c: 0a 00       	<unknown>

Disassembly of section __TEXT,__unwind_info:

0000000100003f30 <__unwind_info>:
100003f30: 00000001    	udf	#1
100003f34: 0000001c    	udf	#28
100003f38: 00000004    	udf	#4
100003f3c: 0000002c    	udf	#44
100003f40: 00000000    	udf	#0
100003f44: 0000002c    	udf	#44
100003f48: 00000002    	udf	#2
100003f4c: 04000000    	add	z0.b, p0/m, z0.b, z0.b
100003f50: 02001000    	<unknown>
100003f54: 02002000    	<unknown>
100003f58: 02003000    	<unknown>
100003f5c: 00001c9c    	udf	#7324
100003f60: 00000050    	udf	#80
100003f64: 00000050    	udf	#80
100003f68: 00003e74    	udf	#15988
100003f6c: 00000000    	udf	#0
100003f70: 00000050    	udf	#80
		...
100003f80: 00000003    	udf	#3
100003f84: 001c000c    	<unknown>
100003f88: 0001007c    	<unknown>
100003f8c: 00000000    	udf	#0
100003f90: 01000340    	<unknown>
100003f94: 030003d8    	<unknown>
100003f98: 0400047c    	add	z28.b, p1/m, z28.b, z3.b
100003f9c: 0200063c    	<unknown>
100003fa0: 0100073c    	<unknown>
100003fa4: 00000790    	udf	#1936
100003fa8: 020007c4    	<unknown>
100003fac: 01000864    	<unknown>
100003fb0: 03000aa8    	<unknown>
100003fb4: 01000c08    	<unknown>
100003fb8: 02000c58    	<unknown>
100003fbc: 03000cb0    	<unknown>
100003fc0: 00000da4    	udf	#3492
100003fc4: 01000e90    	<unknown>
100003fc8: 00000eb8    	udf	#3768
100003fcc: 01000f14    	<unknown>
100003fd0: 00000f64    	udf	#3940
100003fd4: 0100101c    	<unknown>
100003fd8: 0000106c    	udf	#4204
100003fdc: 02001514    	<unknown>
100003fe0: 00001584    	udf	#5508
100003fe4: 03001774    	<unknown>
100003fe8: 00001820    	udf	#6176
100003fec: 01001d28    	<unknown>
100003ff0: 03001d54    	<unknown>
100003ff4: 02001ed0    	<unknown>
100003ff8: 000020f8    	udf	#8440
100003ffc: 02004000    	<unknown>

Disassembly of section __DATA_CONST,__got:

0000000100004000 <__got>:
100004000: 00000000    	udf	#0
100004004: 80100000    	<unknown>
100004008: 00000001    	udf	#1
10000400c: 80100000    	<unknown>
100004010: 00000002    	udf	#2
100004014: 80100000    	<unknown>
100004018: 00000003    	udf	#3
10000401c: 80100000    	<unknown>
100004020: 00000004    	udf	#4
100004024: 80000000    	<unknown>

Disassembly of section __DATA,__data:

0000000100008000 <_null_str>:
100008000: 00003f0a    	udf	#16138
100008004: 00000000    	udf	#0

Disassembly of section __DATA,__common:

0000000100008008 <_a>:
...
